ARM GAS  /var/folders/nl/q97gxh4d5b321tqt4kfb6yzh0000gn/T//ccvnnYlv.s 			page 1


   1              		.cpu cortex-m4
   2              		.eabi_attribute 20, 1	@ Tag_ABI_FP_denormal
   3              		.eabi_attribute 21, 1	@ Tag_ABI_FP_exceptions
   4              		.eabi_attribute 23, 3	@ Tag_ABI_FP_number_model
   5              		.eabi_attribute 24, 1	@ Tag_ABI_align8_needed
   6              		.eabi_attribute 25, 1	@ Tag_ABI_align8_preserved
   7              		.eabi_attribute 26, 1	@ Tag_ABI_enum_size
   8              		.eabi_attribute 30, 4	@ Tag_ABI_optimization_goals
   9              		.eabi_attribute 34, 1	@ Tag_CPU_unaligned_access
  10              		.eabi_attribute 18, 4	@ Tag_ABI_PCS_wchar_t
  11              		.file	"app_error.c"
  12              	@ GNU C11 (GNU Tools for ARM Embedded Processors) version 6.2.1 20161205 (release) [ARM/embedded-6-
  13              	@	compiled by GNU C version 5.4.0, GMP version 6.1.0, MPFR version 3.1.4, MPC version 1.0.3, isl ve
  14              	@ GGC heuristics: --param ggc-min-expand=100 --param ggc-min-heapsize=131072
  15              	@ options passed:  -I . -I include/ -I cfg/
  16              	@ -I ../sdk/nRF5_SDK_12.2.0_f012efa/components/toolchain
  17              	@ -I ../sdk/nRF5_SDK_12.2.0_f012efa/components/toolchain/arm
  18              	@ -I ../sdk/nRF5_SDK_12.2.0_f012efa/components/toolchain/gcc
  19              	@ -I ../sdk/nRF5_SDK_12.2.0_f012efa/components/device
  20              	@ -I ../sdk/nRF5_SDK_12.2.0_f012efa/components/toolchain/cmsis/include
  21              	@ -I ../sdk/nRF5_SDK_12.2.0_f012efa/components/libraries/log
  22              	@ -I ../sdk/nRF5_SDK_12.2.0_f012efa/components/libraries/log/src
  23              	@ -I ../sdk/nRF5_SDK_12.2.0_f012efa/components/drivers_nrf/nrf_soc_nosd
  24              	@ -I ../sdk/nRF5_SDK_12.2.0_f012efa/components/drivers_nrf/hal
  25              	@ -I ../sdk/nRF5_SDK_12.2.0_f012efa/components/drivers_nrf/common
  26              	@ -I ../sdk/nRF5_SDK_12.2.0_f012efa/components/libraries/util
  27              	@ -imultilib thumb/v7e-m
  28              	@ -iprefix /Users/lukashann/Documents/Imperial College London/Year 3/Project/fNIRS-Musketeers/nrf52
  29              	@ -isysroot /Users/lukashann/Documents/Imperial College London/Year 3/Project/fNIRS-Musketeers/nrf5
  30              	@ -MD ../sdk/nRF5_SDK_12.2.0_f012efa/components/libraries/util/app_error.d
  31              	@ -MF .depapp_error.o.d -MP
  32              	@ -MQ ../sdk/nRF5_SDK_12.2.0_f012efa/components/libraries/util/app_error.o
  33              	@ -D__USES_INITFINI__ -D NRF52
  34              	@ ../sdk/nRF5_SDK_12.2.0_f012efa/components/libraries/util/app_error.c
  35              	@ -mcpu=cortex-m4 -mthumb
  36              	@ -auxbase-strip ../sdk/nRF5_SDK_12.2.0_f012efa/components/libraries/util/app_error.o
  37              	@ -gdwarf-2 -Os -Wall -Wstrict-prototypes -fomit-frame-pointer
  38              	@ -fverbose-asm
  39              	@ options enabled:  -faggressive-loop-optimizations -falign-jumps
  40              	@ -falign-labels -falign-loops -fauto-inc-dec -fbranch-count-reg
  41              	@ -fcaller-saves -fchkp-check-incomplete-type -fchkp-check-read
  42              	@ -fchkp-check-write -fchkp-instrument-calls -fchkp-narrow-bounds
  43              	@ -fchkp-optimize -fchkp-store-bounds -fchkp-use-static-bounds
  44              	@ -fchkp-use-static-const-bounds -fchkp-use-wrappers
  45              	@ -fcombine-stack-adjustments -fcommon -fcompare-elim -fcprop-registers
  46              	@ -fcrossjumping -fcse-follow-jumps -fdefer-pop
  47              	@ -fdelete-null-pointer-checks -fdevirtualize -fdevirtualize-speculatively
  48              	@ -fdwarf2-cfi-asm -fearly-inlining -feliminate-unused-debug-types
  49              	@ -fexpensive-optimizations -fforward-propagate -ffunction-cse -fgcse
  50              	@ -fgcse-lm -fgnu-runtime -fgnu-unique -fguess-branch-probability
  51              	@ -fhoist-adjacent-loads -fident -fif-conversion -fif-conversion2
  52              	@ -findirect-inlining -finline -finline-atomics -finline-functions
  53              	@ -finline-functions-called-once -finline-small-functions -fipa-cp
  54              	@ -fipa-cp-alignment -fipa-icf -fipa-icf-functions -fipa-icf-variables
  55              	@ -fipa-profile -fipa-pure-const -fipa-ra -fipa-reference -fipa-sra
  56              	@ -fira-hoist-pressure -fira-share-save-slots -fira-share-spill-slots
  57              	@ -fisolate-erroneous-paths-dereference -fivopts -fkeep-static-consts
ARM GAS  /var/folders/nl/q97gxh4d5b321tqt4kfb6yzh0000gn/T//ccvnnYlv.s 			page 2


  58              	@ -fleading-underscore -flifetime-dse -flra-remat -flto-odr-type-merging
  59              	@ -fmath-errno -fmerge-constants -fmerge-debug-strings
  60              	@ -fmove-loop-invariants -fomit-frame-pointer -foptimize-sibling-calls
  61              	@ -fpartial-inlining -fpeephole -fpeephole2 -fplt -fprefetch-loop-arrays
  62              	@ -freg-struct-return -freorder-blocks -freorder-functions
  63              	@ -frerun-cse-after-loop -fsched-critical-path-heuristic
  64              	@ -fsched-dep-count-heuristic -fsched-group-heuristic -fsched-interblock
  65              	@ -fsched-last-insn-heuristic -fsched-pressure -fsched-rank-heuristic
  66              	@ -fsched-spec -fsched-spec-insn-heuristic -fsched-stalled-insns-dep
  67              	@ -fschedule-insns2 -fsection-anchors -fsemantic-interposition
  68              	@ -fshow-column -fsigned-zeros -fsplit-ivs-in-unroller -fsplit-wide-types
  69              	@ -fssa-backprop -fssa-phiopt -fstdarg-opt -fstrict-aliasing
  70              	@ -fstrict-overflow -fstrict-volatile-bitfields -fsync-libcalls
  71              	@ -fthread-jumps -ftoplevel-reorder -ftrapping-math -ftree-bit-ccp
  72              	@ -ftree-builtin-call-dce -ftree-ccp -ftree-ch -ftree-coalesce-vars
  73              	@ -ftree-copy-prop -ftree-cselim -ftree-dce -ftree-dominator-opts
  74              	@ -ftree-dse -ftree-forwprop -ftree-fre -ftree-loop-if-convert
  75              	@ -ftree-loop-im -ftree-loop-ivcanon -ftree-loop-optimize
  76              	@ -ftree-parallelize-loops= -ftree-phiprop -ftree-pre -ftree-pta
  77              	@ -ftree-reassoc -ftree-scev-cprop -ftree-sink -ftree-slsr -ftree-sra
  78              	@ -ftree-switch-conversion -ftree-tail-merge -ftree-ter -ftree-vrp
  79              	@ -funit-at-a-time -fvar-tracking -fvar-tracking-assignments -fverbose-asm
  80              	@ -fzero-initialized-in-bss -masm-syntax-unified -mlittle-endian
  81              	@ -mpic-data-is-text-relative -msched-prolog -mthumb -munaligned-access
  82              	@ -mvectorize-with-neon-quad
  83              	
  84              		.text
  85              	.Ltext0:
  86              		.cfi_sections	.debug_frame
  87              		.align	1
  88              		.global	app_error_handler
  89              		.syntax unified
  90              		.thumb
  91              		.thumb_func
  92              		.fpu softvfp
  93              		.type	app_error_handler, %function
  94              	app_error_handler:
  95              	.LFB143:
  96              		.file 1 "../sdk/nRF5_SDK_12.2.0_f012efa/components/libraries/util/app_error.c"
   1:../sdk/nRF5_SDK_12.2.0_f012efa/components/libraries/util/app_error.c **** /* Copyright (c) 2014 Nordic Semiconductor. All Rights Reserved.
   2:../sdk/nRF5_SDK_12.2.0_f012efa/components/libraries/util/app_error.c ****  *
   3:../sdk/nRF5_SDK_12.2.0_f012efa/components/libraries/util/app_error.c ****  * The information contained herein is property of Nordic Semiconductor ASA.
   4:../sdk/nRF5_SDK_12.2.0_f012efa/components/libraries/util/app_error.c ****  * Terms and conditions of usage are described in detail in NORDIC
   5:../sdk/nRF5_SDK_12.2.0_f012efa/components/libraries/util/app_error.c ****  * SEMICONDUCTOR STANDARD SOFTWARE LICENSE AGREEMENT.
   6:../sdk/nRF5_SDK_12.2.0_f012efa/components/libraries/util/app_error.c ****  *
   7:../sdk/nRF5_SDK_12.2.0_f012efa/components/libraries/util/app_error.c ****  * Licensees are granted free, non-transferable use of the information. NO
   8:../sdk/nRF5_SDK_12.2.0_f012efa/components/libraries/util/app_error.c ****  * WARRANTY of ANY KIND is provided. This heading must NOT be removed from
   9:../sdk/nRF5_SDK_12.2.0_f012efa/components/libraries/util/app_error.c ****  * the file.
  10:../sdk/nRF5_SDK_12.2.0_f012efa/components/libraries/util/app_error.c ****  *
  11:../sdk/nRF5_SDK_12.2.0_f012efa/components/libraries/util/app_error.c ****  */
  12:../sdk/nRF5_SDK_12.2.0_f012efa/components/libraries/util/app_error.c **** 
  13:../sdk/nRF5_SDK_12.2.0_f012efa/components/libraries/util/app_error.c **** /** @file
  14:../sdk/nRF5_SDK_12.2.0_f012efa/components/libraries/util/app_error.c ****  *
  15:../sdk/nRF5_SDK_12.2.0_f012efa/components/libraries/util/app_error.c ****  * @defgroup app_error Common application error handler
  16:../sdk/nRF5_SDK_12.2.0_f012efa/components/libraries/util/app_error.c ****  * @{
  17:../sdk/nRF5_SDK_12.2.0_f012efa/components/libraries/util/app_error.c ****  * @ingroup app_common
  18:../sdk/nRF5_SDK_12.2.0_f012efa/components/libraries/util/app_error.c ****  *
ARM GAS  /var/folders/nl/q97gxh4d5b321tqt4kfb6yzh0000gn/T//ccvnnYlv.s 			page 3


  19:../sdk/nRF5_SDK_12.2.0_f012efa/components/libraries/util/app_error.c ****  * @brief Common application error handler.
  20:../sdk/nRF5_SDK_12.2.0_f012efa/components/libraries/util/app_error.c ****  */
  21:../sdk/nRF5_SDK_12.2.0_f012efa/components/libraries/util/app_error.c **** 
  22:../sdk/nRF5_SDK_12.2.0_f012efa/components/libraries/util/app_error.c **** #include "nrf.h"
  23:../sdk/nRF5_SDK_12.2.0_f012efa/components/libraries/util/app_error.c **** #include <stdio.h>
  24:../sdk/nRF5_SDK_12.2.0_f012efa/components/libraries/util/app_error.c **** #include "app_error.h"
  25:../sdk/nRF5_SDK_12.2.0_f012efa/components/libraries/util/app_error.c **** #include "nordic_common.h"
  26:../sdk/nRF5_SDK_12.2.0_f012efa/components/libraries/util/app_error.c **** #include "sdk_errors.h"
  27:../sdk/nRF5_SDK_12.2.0_f012efa/components/libraries/util/app_error.c **** #include "nrf_log.h"
  28:../sdk/nRF5_SDK_12.2.0_f012efa/components/libraries/util/app_error.c **** #include "nrf_log_ctrl.h"
  29:../sdk/nRF5_SDK_12.2.0_f012efa/components/libraries/util/app_error.c **** /**@brief Function for error handling, which is called when an error has occurred.
  30:../sdk/nRF5_SDK_12.2.0_f012efa/components/libraries/util/app_error.c ****  *
  31:../sdk/nRF5_SDK_12.2.0_f012efa/components/libraries/util/app_error.c ****  * @warning This handler is an example only and does not fit a final product. You need to analyze
  32:../sdk/nRF5_SDK_12.2.0_f012efa/components/libraries/util/app_error.c ****  *          how your product is supposed to react in case of error.
  33:../sdk/nRF5_SDK_12.2.0_f012efa/components/libraries/util/app_error.c ****  *
  34:../sdk/nRF5_SDK_12.2.0_f012efa/components/libraries/util/app_error.c ****  * @param[in] error_code  Error code supplied to the handler.
  35:../sdk/nRF5_SDK_12.2.0_f012efa/components/libraries/util/app_error.c ****  * @param[in] line_num    Line number where the handler is called.
  36:../sdk/nRF5_SDK_12.2.0_f012efa/components/libraries/util/app_error.c ****  * @param[in] p_file_name Pointer to the file name.
  37:../sdk/nRF5_SDK_12.2.0_f012efa/components/libraries/util/app_error.c ****  */
  38:../sdk/nRF5_SDK_12.2.0_f012efa/components/libraries/util/app_error.c **** 
  39:../sdk/nRF5_SDK_12.2.0_f012efa/components/libraries/util/app_error.c **** /*lint -save -e14 */
  40:../sdk/nRF5_SDK_12.2.0_f012efa/components/libraries/util/app_error.c **** void app_error_handler(ret_code_t error_code, uint32_t line_num, const uint8_t * p_file_name)
  41:../sdk/nRF5_SDK_12.2.0_f012efa/components/libraries/util/app_error.c **** {
  97              		.loc 1 41 0
  98              		.cfi_startproc
  99              		@ args = 0, pretend = 0, frame = 16
 100              		@ frame_needed = 0, uses_anonymous_args = 0
 101              	.LVL0:
 102 0000 1FB5     		push	{r0, r1, r2, r3, r4, lr}	@
 103              	.LCFI0:
 104              		.cfi_def_cfa_offset 24
 105              		.cfi_offset 14, -4
  42:../sdk/nRF5_SDK_12.2.0_f012efa/components/libraries/util/app_error.c ****     error_info_t error_info =
 106              		.loc 1 42 0
 107 0002 ADF80410 		strh	r1, [sp, #4]	@ movhi	@ line_num, error_info.line_num
 108 0006 0292     		str	r2, [sp, #8]	@ p_file_name, error_info.p_file_name
 109 0008 0390     		str	r0, [sp, #12]	@ error_code, error_info.err_code
  43:../sdk/nRF5_SDK_12.2.0_f012efa/components/libraries/util/app_error.c ****     {
  44:../sdk/nRF5_SDK_12.2.0_f012efa/components/libraries/util/app_error.c ****         .line_num    = line_num,
  45:../sdk/nRF5_SDK_12.2.0_f012efa/components/libraries/util/app_error.c ****         .p_file_name = p_file_name,
  46:../sdk/nRF5_SDK_12.2.0_f012efa/components/libraries/util/app_error.c ****         .err_code    = error_code,
  47:../sdk/nRF5_SDK_12.2.0_f012efa/components/libraries/util/app_error.c ****     };
  48:../sdk/nRF5_SDK_12.2.0_f012efa/components/libraries/util/app_error.c ****     app_error_fault_handler(NRF_FAULT_ID_SDK_ERROR, 0, (uint32_t)(&error_info));
 110              		.loc 1 48 0
 111 000a 01AA     		add	r2, sp, #4	@,,
 112              	.LVL1:
 113 000c 0021     		movs	r1, #0	@,
 114              	.LVL2:
 115 000e 44F20100 		movw	r0, #16385	@,
 116              	.LVL3:
 117 0012 FFF7FEFF 		bl	app_error_fault_handler	@
 118              	.LVL4:
  49:../sdk/nRF5_SDK_12.2.0_f012efa/components/libraries/util/app_error.c **** 
  50:../sdk/nRF5_SDK_12.2.0_f012efa/components/libraries/util/app_error.c ****     UNUSED_VARIABLE(error_info);
  51:../sdk/nRF5_SDK_12.2.0_f012efa/components/libraries/util/app_error.c **** }
 119              		.loc 1 51 0
 120 0016 05B0     		add	sp, sp, #20	@,,
ARM GAS  /var/folders/nl/q97gxh4d5b321tqt4kfb6yzh0000gn/T//ccvnnYlv.s 			page 4


 121              	.LCFI1:
 122              		.cfi_def_cfa_offset 4
 123              		@ sp needed	@
 124 0018 5DF804FB 		ldr	pc, [sp], #4	@
 125              		.cfi_endproc
 126              	.LFE143:
 127              		.size	app_error_handler, .-app_error_handler
 128              		.align	1
 129              		.global	app_error_handler_bare
 130              		.syntax unified
 131              		.thumb
 132              		.thumb_func
 133              		.fpu softvfp
 134              		.type	app_error_handler_bare, %function
 135              	app_error_handler_bare:
 136              	.LFB144:
  52:../sdk/nRF5_SDK_12.2.0_f012efa/components/libraries/util/app_error.c **** 
  53:../sdk/nRF5_SDK_12.2.0_f012efa/components/libraries/util/app_error.c **** /*lint -save -e14 */
  54:../sdk/nRF5_SDK_12.2.0_f012efa/components/libraries/util/app_error.c **** void app_error_handler_bare(ret_code_t error_code)
  55:../sdk/nRF5_SDK_12.2.0_f012efa/components/libraries/util/app_error.c **** {
 137              		.loc 1 55 0
 138              		.cfi_startproc
 139              		@ args = 0, pretend = 0, frame = 16
 140              		@ frame_needed = 0, uses_anonymous_args = 0
 141              	.LVL5:
 142 001c 1FB5     		push	{r0, r1, r2, r3, r4, lr}	@
 143              	.LCFI2:
 144              		.cfi_def_cfa_offset 24
 145              		.cfi_offset 14, -4
  56:../sdk/nRF5_SDK_12.2.0_f012efa/components/libraries/util/app_error.c ****     error_info_t error_info =
 146              		.loc 1 56 0
 147 001e 0021     		movs	r1, #0	@ tmp113,
 148 0020 0390     		str	r0, [sp, #12]	@ error_code, error_info.err_code
  57:../sdk/nRF5_SDK_12.2.0_f012efa/components/libraries/util/app_error.c ****     {
  58:../sdk/nRF5_SDK_12.2.0_f012efa/components/libraries/util/app_error.c ****         .line_num    = 0,
  59:../sdk/nRF5_SDK_12.2.0_f012efa/components/libraries/util/app_error.c ****         .p_file_name = NULL,
  60:../sdk/nRF5_SDK_12.2.0_f012efa/components/libraries/util/app_error.c ****         .err_code    = error_code,
  61:../sdk/nRF5_SDK_12.2.0_f012efa/components/libraries/util/app_error.c ****     };
  62:../sdk/nRF5_SDK_12.2.0_f012efa/components/libraries/util/app_error.c **** 
  63:../sdk/nRF5_SDK_12.2.0_f012efa/components/libraries/util/app_error.c ****     app_error_fault_handler(NRF_FAULT_ID_SDK_ERROR, 0, (uint32_t)(&error_info));
 149              		.loc 1 63 0
 150 0022 01AA     		add	r2, sp, #4	@,,
 151 0024 44F20100 		movw	r0, #16385	@,
 152              	.LVL6:
  56:../sdk/nRF5_SDK_12.2.0_f012efa/components/libraries/util/app_error.c ****     error_info_t error_info =
 153              		.loc 1 56 0
 154 0028 ADF80410 		strh	r1, [sp, #4]	@ movhi	@ tmp113, error_info.line_num
 155 002c 0291     		str	r1, [sp, #8]	@ tmp113, error_info.p_file_name
 156              		.loc 1 63 0
 157 002e FFF7FEFF 		bl	app_error_fault_handler	@
 158              	.LVL7:
  64:../sdk/nRF5_SDK_12.2.0_f012efa/components/libraries/util/app_error.c **** 
  65:../sdk/nRF5_SDK_12.2.0_f012efa/components/libraries/util/app_error.c ****     UNUSED_VARIABLE(error_info);
  66:../sdk/nRF5_SDK_12.2.0_f012efa/components/libraries/util/app_error.c **** }
 159              		.loc 1 66 0
 160 0032 05B0     		add	sp, sp, #20	@,,
 161              	.LCFI3:
ARM GAS  /var/folders/nl/q97gxh4d5b321tqt4kfb6yzh0000gn/T//ccvnnYlv.s 			page 5


 162              		.cfi_def_cfa_offset 4
 163              		@ sp needed	@
 164 0034 5DF804FB 		ldr	pc, [sp], #4	@
 165              		.cfi_endproc
 166              	.LFE144:
 167              		.size	app_error_handler_bare, .-app_error_handler_bare
 168              		.align	1
 169              		.global	app_error_save_and_stop
 170              		.syntax unified
 171              		.thumb
 172              		.thumb_func
 173              		.fpu softvfp
 174              		.type	app_error_save_and_stop, %function
 175              	app_error_save_and_stop:
 176              	.LFB145:
  67:../sdk/nRF5_SDK_12.2.0_f012efa/components/libraries/util/app_error.c **** 
  68:../sdk/nRF5_SDK_12.2.0_f012efa/components/libraries/util/app_error.c **** 
  69:../sdk/nRF5_SDK_12.2.0_f012efa/components/libraries/util/app_error.c **** void app_error_save_and_stop(uint32_t id, uint32_t pc, uint32_t info)
  70:../sdk/nRF5_SDK_12.2.0_f012efa/components/libraries/util/app_error.c **** {
 177              		.loc 1 70 0
 178              		.cfi_startproc
 179              		@ args = 0, pretend = 0, frame = 8
 180              		@ frame_needed = 0, uses_anonymous_args = 0
 181              		@ link register save eliminated.
 182              	.LVL8:
 183 0038 82B0     		sub	sp, sp, #8	@,,
 184              	.LCFI4:
 185              		.cfi_def_cfa_offset 8
  71:../sdk/nRF5_SDK_12.2.0_f012efa/components/libraries/util/app_error.c ****     /* static error variables - in order to prevent removal by optimizers */
  72:../sdk/nRF5_SDK_12.2.0_f012efa/components/libraries/util/app_error.c ****     static volatile struct
  73:../sdk/nRF5_SDK_12.2.0_f012efa/components/libraries/util/app_error.c ****     {
  74:../sdk/nRF5_SDK_12.2.0_f012efa/components/libraries/util/app_error.c ****         uint32_t        fault_id;
  75:../sdk/nRF5_SDK_12.2.0_f012efa/components/libraries/util/app_error.c ****         uint32_t        pc;
  76:../sdk/nRF5_SDK_12.2.0_f012efa/components/libraries/util/app_error.c ****         uint32_t        error_info;
  77:../sdk/nRF5_SDK_12.2.0_f012efa/components/libraries/util/app_error.c ****         assert_info_t * p_assert_info;
  78:../sdk/nRF5_SDK_12.2.0_f012efa/components/libraries/util/app_error.c ****         error_info_t  * p_error_info;
  79:../sdk/nRF5_SDK_12.2.0_f012efa/components/libraries/util/app_error.c ****         ret_code_t      err_code;
  80:../sdk/nRF5_SDK_12.2.0_f012efa/components/libraries/util/app_error.c ****         uint32_t        line_num;
  81:../sdk/nRF5_SDK_12.2.0_f012efa/components/libraries/util/app_error.c ****         const uint8_t * p_file_name;
  82:../sdk/nRF5_SDK_12.2.0_f012efa/components/libraries/util/app_error.c ****     } m_error_data = {0};
  83:../sdk/nRF5_SDK_12.2.0_f012efa/components/libraries/util/app_error.c **** 
  84:../sdk/nRF5_SDK_12.2.0_f012efa/components/libraries/util/app_error.c ****     // The following variable helps Keil keep the call stack visible, in addition, it can be set to
  85:../sdk/nRF5_SDK_12.2.0_f012efa/components/libraries/util/app_error.c ****     // 0 in the debugger to continue executing code after the error check.
  86:../sdk/nRF5_SDK_12.2.0_f012efa/components/libraries/util/app_error.c ****     volatile bool loop = true;
 186              		.loc 1 86 0
 187 003a 0123     		movs	r3, #1	@ tmp129,
 188 003c 8DF80730 		strb	r3, [sp, #7]	@ tmp129, loop
  87:../sdk/nRF5_SDK_12.2.0_f012efa/components/libraries/util/app_error.c ****     UNUSED_VARIABLE(loop);
 189              		.loc 1 87 0
 190 0040 9DF80730 		ldrb	r3, [sp, #7]	@ zero_extendqisi2	@ loop, loop
  88:../sdk/nRF5_SDK_12.2.0_f012efa/components/libraries/util/app_error.c **** 
  89:../sdk/nRF5_SDK_12.2.0_f012efa/components/libraries/util/app_error.c ****     m_error_data.fault_id   = id;
 191              		.loc 1 89 0
 192 0044 114B     		ldr	r3, .L10	@ tmp134,
 193 0046 1860     		str	r0, [r3]	@ id, m_error_data.fault_id
  90:../sdk/nRF5_SDK_12.2.0_f012efa/components/libraries/util/app_error.c ****     m_error_data.pc         = pc;
 194              		.loc 1 90 0
ARM GAS  /var/folders/nl/q97gxh4d5b321tqt4kfb6yzh0000gn/T//ccvnnYlv.s 			page 6


 195 0048 5960     		str	r1, [r3, #4]	@ pc, m_error_data.pc
  91:../sdk/nRF5_SDK_12.2.0_f012efa/components/libraries/util/app_error.c ****     m_error_data.error_info = info;
  92:../sdk/nRF5_SDK_12.2.0_f012efa/components/libraries/util/app_error.c **** 
  93:../sdk/nRF5_SDK_12.2.0_f012efa/components/libraries/util/app_error.c ****     switch (id)
 196              		.loc 1 93 0
 197 004a 44F20101 		movw	r1, #16385	@ tmp137,
 198              	.LVL9:
 199 004e 8842     		cmp	r0, r1	@ id, tmp137
  91:../sdk/nRF5_SDK_12.2.0_f012efa/components/libraries/util/app_error.c ****     m_error_data.error_info = info;
 200              		.loc 1 91 0
 201 0050 9A60     		str	r2, [r3, #8]	@ info, m_error_data.error_info
 202              	.LVL10:
 203              		.loc 1 93 0
 204 0052 12D0     		beq	.L5	@,
 205 0054 44F20201 		movw	r1, #16386	@ tmp138,
 206 0058 8842     		cmp	r0, r1	@ id, tmp138
 207 005a 06D1     		bne	.L4	@,
  94:../sdk/nRF5_SDK_12.2.0_f012efa/components/libraries/util/app_error.c ****     {
  95:../sdk/nRF5_SDK_12.2.0_f012efa/components/libraries/util/app_error.c ****         case NRF_FAULT_ID_SDK_ASSERT:
  96:../sdk/nRF5_SDK_12.2.0_f012efa/components/libraries/util/app_error.c ****             m_error_data.p_assert_info = (assert_info_t *)info;
 208              		.loc 1 96 0
 209 005c DA60     		str	r2, [r3, #12]	@ info, m_error_data.p_assert_info
  97:../sdk/nRF5_SDK_12.2.0_f012efa/components/libraries/util/app_error.c ****             m_error_data.line_num      = m_error_data.p_assert_info->line_num;
 210              		.loc 1 97 0
 211 005e DA68     		ldr	r2, [r3, #12]	@ _13, m_error_data.p_assert_info
 212              	.LVL11:
 213 0060 1288     		ldrh	r2, [r2]	@ _15, _13->line_num
 214 0062 9A61     		str	r2, [r3, #24]	@ _15, m_error_data.line_num
 215              	.LVL12:
  98:../sdk/nRF5_SDK_12.2.0_f012efa/components/libraries/util/app_error.c ****             m_error_data.p_file_name   = m_error_data.p_assert_info->p_file_name;
 216              		.loc 1 98 0
 217 0064 DA68     		ldr	r2, [r3, #12]	@ _17, m_error_data.p_assert_info
 218              	.L9:
  99:../sdk/nRF5_SDK_12.2.0_f012efa/components/libraries/util/app_error.c ****             break;
 100:../sdk/nRF5_SDK_12.2.0_f012efa/components/libraries/util/app_error.c **** 
 101:../sdk/nRF5_SDK_12.2.0_f012efa/components/libraries/util/app_error.c ****         case NRF_FAULT_ID_SDK_ERROR:
 102:../sdk/nRF5_SDK_12.2.0_f012efa/components/libraries/util/app_error.c ****             m_error_data.p_error_info = (error_info_t *)info;
 103:../sdk/nRF5_SDK_12.2.0_f012efa/components/libraries/util/app_error.c ****             m_error_data.err_code     = m_error_data.p_error_info->err_code;
 104:../sdk/nRF5_SDK_12.2.0_f012efa/components/libraries/util/app_error.c ****             m_error_data.line_num     = m_error_data.p_error_info->line_num;
 105:../sdk/nRF5_SDK_12.2.0_f012efa/components/libraries/util/app_error.c ****             m_error_data.p_file_name  = m_error_data.p_error_info->p_file_name;
 219              		.loc 1 105 0
 220 0066 5268     		ldr	r2, [r2, #4]	@ _30,
 221 0068 DA61     		str	r2, [r3, #28]	@ _30,
 222              	.L4:
 223              	.LBB6:
 224              	.LBB7:
 225              		.file 2 "../sdk/nRF5_SDK_12.2.0_f012efa/components/toolchain/cmsis/include/cmsis_gcc.h"
   1:../sdk/nRF5_SDK_12.2.0_f012efa/components/toolchain/cmsis/include/cmsis_gcc.h **** /**************************************************************************//**
   2:../sdk/nRF5_SDK_12.2.0_f012efa/components/toolchain/cmsis/include/cmsis_gcc.h ****  * @file     cmsis_gcc.h
   3:../sdk/nRF5_SDK_12.2.0_f012efa/components/toolchain/cmsis/include/cmsis_gcc.h ****  * @brief    CMSIS Cortex-M Core Function/Instruction Header File
   4:../sdk/nRF5_SDK_12.2.0_f012efa/components/toolchain/cmsis/include/cmsis_gcc.h ****  * @version  V4.30
   5:../sdk/nRF5_SDK_12.2.0_f012efa/components/toolchain/cmsis/include/cmsis_gcc.h ****  * @date     20. October 2015
   6:../sdk/nRF5_SDK_12.2.0_f012efa/components/toolchain/cmsis/include/cmsis_gcc.h ****  ******************************************************************************/
   7:../sdk/nRF5_SDK_12.2.0_f012efa/components/toolchain/cmsis/include/cmsis_gcc.h **** /* Copyright (c) 2009 - 2015 ARM LIMITED
   8:../sdk/nRF5_SDK_12.2.0_f012efa/components/toolchain/cmsis/include/cmsis_gcc.h **** 
   9:../sdk/nRF5_SDK_12.2.0_f012efa/components/toolchain/cmsis/include/cmsis_gcc.h ****    All rights reserved.
  10:../sdk/nRF5_SDK_12.2.0_f012efa/components/toolchain/cmsis/include/cmsis_gcc.h ****    Redistribution and use in source and binary forms, with or without
ARM GAS  /var/folders/nl/q97gxh4d5b321tqt4kfb6yzh0000gn/T//ccvnnYlv.s 			page 7


  11:../sdk/nRF5_SDK_12.2.0_f012efa/components/toolchain/cmsis/include/cmsis_gcc.h ****    modification, are permitted provided that the following conditions are met:
  12:../sdk/nRF5_SDK_12.2.0_f012efa/components/toolchain/cmsis/include/cmsis_gcc.h ****    - Redistributions of source code must retain the above copyright
  13:../sdk/nRF5_SDK_12.2.0_f012efa/components/toolchain/cmsis/include/cmsis_gcc.h ****      notice, this list of conditions and the following disclaimer.
  14:../sdk/nRF5_SDK_12.2.0_f012efa/components/toolchain/cmsis/include/cmsis_gcc.h ****    - Redistributions in binary form must reproduce the above copyright
  15:../sdk/nRF5_SDK_12.2.0_f012efa/components/toolchain/cmsis/include/cmsis_gcc.h ****      notice, this list of conditions and the following disclaimer in the
  16:../sdk/nRF5_SDK_12.2.0_f012efa/components/toolchain/cmsis/include/cmsis_gcc.h ****      documentation and/or other materials provided with the distribution.
  17:../sdk/nRF5_SDK_12.2.0_f012efa/components/toolchain/cmsis/include/cmsis_gcc.h ****    - Neither the name of ARM nor the names of its contributors may be used
  18:../sdk/nRF5_SDK_12.2.0_f012efa/components/toolchain/cmsis/include/cmsis_gcc.h ****      to endorse or promote products derived from this software without
  19:../sdk/nRF5_SDK_12.2.0_f012efa/components/toolchain/cmsis/include/cmsis_gcc.h ****      specific prior written permission.
  20:../sdk/nRF5_SDK_12.2.0_f012efa/components/toolchain/cmsis/include/cmsis_gcc.h ****    *
  21:../sdk/nRF5_SDK_12.2.0_f012efa/components/toolchain/cmsis/include/cmsis_gcc.h ****    THIS SOFTWARE IS PROVIDED BY THE COPYRIGHT HOLDERS AND CONTRIBUTORS "AS IS"
  22:../sdk/nRF5_SDK_12.2.0_f012efa/components/toolchain/cmsis/include/cmsis_gcc.h ****    AND ANY EXPRESS OR IMPLIED WARRANTIES, INCLUDING, BUT NOT LIMITED TO, THE
  23:../sdk/nRF5_SDK_12.2.0_f012efa/components/toolchain/cmsis/include/cmsis_gcc.h ****    IMPLIED WARRANTIES OF MERCHANTABILITY AND FITNESS FOR A PARTICULAR PURPOSE
  24:../sdk/nRF5_SDK_12.2.0_f012efa/components/toolchain/cmsis/include/cmsis_gcc.h ****    ARE DISCLAIMED. IN NO EVENT SHALL COPYRIGHT HOLDERS AND CONTRIBUTORS BE
  25:../sdk/nRF5_SDK_12.2.0_f012efa/components/toolchain/cmsis/include/cmsis_gcc.h ****    LIABLE FOR ANY DIRECT, INDIRECT, INCIDENTAL, SPECIAL, EXEMPLARY, OR
  26:../sdk/nRF5_SDK_12.2.0_f012efa/components/toolchain/cmsis/include/cmsis_gcc.h ****    CONSEQUENTIAL DAMAGES (INCLUDING, BUT NOT LIMITED TO, PROCUREMENT OF
  27:../sdk/nRF5_SDK_12.2.0_f012efa/components/toolchain/cmsis/include/cmsis_gcc.h ****    SUBSTITUTE GOODS OR SERVICES; LOSS OF USE, DATA, OR PROFITS; OR BUSINESS
  28:../sdk/nRF5_SDK_12.2.0_f012efa/components/toolchain/cmsis/include/cmsis_gcc.h ****    INTERRUPTION) HOWEVER CAUSED AND ON ANY THEORY OF LIABILITY, WHETHER IN
  29:../sdk/nRF5_SDK_12.2.0_f012efa/components/toolchain/cmsis/include/cmsis_gcc.h ****    CONTRACT, STRICT LIABILITY, OR TORT (INCLUDING NEGLIGENCE OR OTHERWISE)
  30:../sdk/nRF5_SDK_12.2.0_f012efa/components/toolchain/cmsis/include/cmsis_gcc.h ****    ARISING IN ANY WAY OUT OF THE USE OF THIS SOFTWARE, EVEN IF ADVISED OF THE
  31:../sdk/nRF5_SDK_12.2.0_f012efa/components/toolchain/cmsis/include/cmsis_gcc.h ****    POSSIBILITY OF SUCH DAMAGE.
  32:../sdk/nRF5_SDK_12.2.0_f012efa/components/toolchain/cmsis/include/cmsis_gcc.h ****    ---------------------------------------------------------------------------*/
  33:../sdk/nRF5_SDK_12.2.0_f012efa/components/toolchain/cmsis/include/cmsis_gcc.h **** 
  34:../sdk/nRF5_SDK_12.2.0_f012efa/components/toolchain/cmsis/include/cmsis_gcc.h **** 
  35:../sdk/nRF5_SDK_12.2.0_f012efa/components/toolchain/cmsis/include/cmsis_gcc.h **** #ifndef __CMSIS_GCC_H
  36:../sdk/nRF5_SDK_12.2.0_f012efa/components/toolchain/cmsis/include/cmsis_gcc.h **** #define __CMSIS_GCC_H
  37:../sdk/nRF5_SDK_12.2.0_f012efa/components/toolchain/cmsis/include/cmsis_gcc.h **** 
  38:../sdk/nRF5_SDK_12.2.0_f012efa/components/toolchain/cmsis/include/cmsis_gcc.h **** /* ignore some GCC warnings */
  39:../sdk/nRF5_SDK_12.2.0_f012efa/components/toolchain/cmsis/include/cmsis_gcc.h **** #if defined ( __GNUC__ )
  40:../sdk/nRF5_SDK_12.2.0_f012efa/components/toolchain/cmsis/include/cmsis_gcc.h **** #pragma GCC diagnostic push
  41:../sdk/nRF5_SDK_12.2.0_f012efa/components/toolchain/cmsis/include/cmsis_gcc.h **** #pragma GCC diagnostic ignored "-Wsign-conversion"
  42:../sdk/nRF5_SDK_12.2.0_f012efa/components/toolchain/cmsis/include/cmsis_gcc.h **** #pragma GCC diagnostic ignored "-Wconversion"
  43:../sdk/nRF5_SDK_12.2.0_f012efa/components/toolchain/cmsis/include/cmsis_gcc.h **** #pragma GCC diagnostic ignored "-Wunused-parameter"
  44:../sdk/nRF5_SDK_12.2.0_f012efa/components/toolchain/cmsis/include/cmsis_gcc.h **** #endif
  45:../sdk/nRF5_SDK_12.2.0_f012efa/components/toolchain/cmsis/include/cmsis_gcc.h **** 
  46:../sdk/nRF5_SDK_12.2.0_f012efa/components/toolchain/cmsis/include/cmsis_gcc.h **** 
  47:../sdk/nRF5_SDK_12.2.0_f012efa/components/toolchain/cmsis/include/cmsis_gcc.h **** /* ###########################  Core Function Access  ########################### */
  48:../sdk/nRF5_SDK_12.2.0_f012efa/components/toolchain/cmsis/include/cmsis_gcc.h **** /** \ingroup  CMSIS_Core_FunctionInterface
  49:../sdk/nRF5_SDK_12.2.0_f012efa/components/toolchain/cmsis/include/cmsis_gcc.h ****     \defgroup CMSIS_Core_RegAccFunctions CMSIS Core Register Access Functions
  50:../sdk/nRF5_SDK_12.2.0_f012efa/components/toolchain/cmsis/include/cmsis_gcc.h ****   @{
  51:../sdk/nRF5_SDK_12.2.0_f012efa/components/toolchain/cmsis/include/cmsis_gcc.h ****  */
  52:../sdk/nRF5_SDK_12.2.0_f012efa/components/toolchain/cmsis/include/cmsis_gcc.h **** 
  53:../sdk/nRF5_SDK_12.2.0_f012efa/components/toolchain/cmsis/include/cmsis_gcc.h **** /**
  54:../sdk/nRF5_SDK_12.2.0_f012efa/components/toolchain/cmsis/include/cmsis_gcc.h ****   \brief   Enable IRQ Interrupts
  55:../sdk/nRF5_SDK_12.2.0_f012efa/components/toolchain/cmsis/include/cmsis_gcc.h ****   \details Enables IRQ interrupts by clearing the I-bit in the CPSR.
  56:../sdk/nRF5_SDK_12.2.0_f012efa/components/toolchain/cmsis/include/cmsis_gcc.h ****            Can only be executed in Privileged modes.
  57:../sdk/nRF5_SDK_12.2.0_f012efa/components/toolchain/cmsis/include/cmsis_gcc.h ****  */
  58:../sdk/nRF5_SDK_12.2.0_f012efa/components/toolchain/cmsis/include/cmsis_gcc.h **** __attribute__( ( always_inline ) ) __STATIC_INLINE void __enable_irq(void)
  59:../sdk/nRF5_SDK_12.2.0_f012efa/components/toolchain/cmsis/include/cmsis_gcc.h **** {
  60:../sdk/nRF5_SDK_12.2.0_f012efa/components/toolchain/cmsis/include/cmsis_gcc.h ****   __ASM volatile ("cpsie i" : : : "memory");
  61:../sdk/nRF5_SDK_12.2.0_f012efa/components/toolchain/cmsis/include/cmsis_gcc.h **** }
  62:../sdk/nRF5_SDK_12.2.0_f012efa/components/toolchain/cmsis/include/cmsis_gcc.h **** 
  63:../sdk/nRF5_SDK_12.2.0_f012efa/components/toolchain/cmsis/include/cmsis_gcc.h **** 
  64:../sdk/nRF5_SDK_12.2.0_f012efa/components/toolchain/cmsis/include/cmsis_gcc.h **** /**
  65:../sdk/nRF5_SDK_12.2.0_f012efa/components/toolchain/cmsis/include/cmsis_gcc.h ****   \brief   Disable IRQ Interrupts
  66:../sdk/nRF5_SDK_12.2.0_f012efa/components/toolchain/cmsis/include/cmsis_gcc.h ****   \details Disables IRQ interrupts by setting the I-bit in the CPSR.
  67:../sdk/nRF5_SDK_12.2.0_f012efa/components/toolchain/cmsis/include/cmsis_gcc.h ****   Can only be executed in Privileged modes.
ARM GAS  /var/folders/nl/q97gxh4d5b321tqt4kfb6yzh0000gn/T//ccvnnYlv.s 			page 8


  68:../sdk/nRF5_SDK_12.2.0_f012efa/components/toolchain/cmsis/include/cmsis_gcc.h ****  */
  69:../sdk/nRF5_SDK_12.2.0_f012efa/components/toolchain/cmsis/include/cmsis_gcc.h **** __attribute__( ( always_inline ) ) __STATIC_INLINE void __disable_irq(void)
  70:../sdk/nRF5_SDK_12.2.0_f012efa/components/toolchain/cmsis/include/cmsis_gcc.h **** {
  71:../sdk/nRF5_SDK_12.2.0_f012efa/components/toolchain/cmsis/include/cmsis_gcc.h ****   __ASM volatile ("cpsid i" : : : "memory");
 226              		.loc 2 71 0
 227              		.syntax unified
 228              	@ 71 "../sdk/nRF5_SDK_12.2.0_f012efa/components/toolchain/cmsis/include/cmsis_gcc.h" 1
 229 006a 72B6     		cpsid i
 230              	@ 0 "" 2
 231              		.thumb
 232              		.syntax unified
 233              	.L7:
 234              	.LBE7:
 235              	.LBE6:
 106:../sdk/nRF5_SDK_12.2.0_f012efa/components/libraries/util/app_error.c ****             break;
 107:../sdk/nRF5_SDK_12.2.0_f012efa/components/libraries/util/app_error.c ****     }
 108:../sdk/nRF5_SDK_12.2.0_f012efa/components/libraries/util/app_error.c **** 
 109:../sdk/nRF5_SDK_12.2.0_f012efa/components/libraries/util/app_error.c ****     UNUSED_VARIABLE(m_error_data);
 110:../sdk/nRF5_SDK_12.2.0_f012efa/components/libraries/util/app_error.c **** 
 111:../sdk/nRF5_SDK_12.2.0_f012efa/components/libraries/util/app_error.c ****     // If printing is disrupted, remove the irq calls, or set the loop variable to 0 in the debugge
 112:../sdk/nRF5_SDK_12.2.0_f012efa/components/libraries/util/app_error.c ****     __disable_irq();
 113:../sdk/nRF5_SDK_12.2.0_f012efa/components/libraries/util/app_error.c ****     while (loop);
 236              		.loc 1 113 0 discriminator 1
 237 006c 9DF80730 		ldrb	r3, [sp, #7]	@ zero_extendqisi2	@ loop, loop
 238 0070 002B     		cmp	r3, #0	@ loop
 239 0072 FBD1     		bne	.L7	@
 240              	.LBB8:
 241              	.LBB9:
  60:../sdk/nRF5_SDK_12.2.0_f012efa/components/toolchain/cmsis/include/cmsis_gcc.h **** }
 242              		.loc 2 60 0
 243              		.syntax unified
 244              	@ 60 "../sdk/nRF5_SDK_12.2.0_f012efa/components/toolchain/cmsis/include/cmsis_gcc.h" 1
 245 0074 62B6     		cpsie i
 246              	@ 0 "" 2
 247              		.thumb
 248              		.syntax unified
 249              	.LBE9:
 250              	.LBE8:
 114:../sdk/nRF5_SDK_12.2.0_f012efa/components/libraries/util/app_error.c **** 
 115:../sdk/nRF5_SDK_12.2.0_f012efa/components/libraries/util/app_error.c ****     __enable_irq();
 116:../sdk/nRF5_SDK_12.2.0_f012efa/components/libraries/util/app_error.c **** }
 251              		.loc 1 116 0
 252 0076 02B0     		add	sp, sp, #8	@,,
 253              	.LCFI5:
 254              		.cfi_remember_state
 255              		.cfi_def_cfa_offset 0
 256              		@ sp needed	@
 257 0078 7047     		bx	lr	@
 258              	.LVL13:
 259              	.L5:
 260              	.LCFI6:
 261              		.cfi_restore_state
 102:../sdk/nRF5_SDK_12.2.0_f012efa/components/libraries/util/app_error.c ****             m_error_data.err_code     = m_error_data.p_error_info->err_code;
 262              		.loc 1 102 0
 263 007a 1A61     		str	r2, [r3, #16]	@ info, m_error_data.p_error_info
 103:../sdk/nRF5_SDK_12.2.0_f012efa/components/libraries/util/app_error.c ****             m_error_data.line_num     = m_error_data.p_error_info->line_num;
 264              		.loc 1 103 0
ARM GAS  /var/folders/nl/q97gxh4d5b321tqt4kfb6yzh0000gn/T//ccvnnYlv.s 			page 9


 265 007c 1A69     		ldr	r2, [r3, #16]	@ _22, m_error_data.p_error_info
 266              	.LVL14:
 267 007e 9268     		ldr	r2, [r2, #8]	@ _23, _22->err_code
 268 0080 5A61     		str	r2, [r3, #20]	@ _23, m_error_data.err_code
 269              	.LVL15:
 104:../sdk/nRF5_SDK_12.2.0_f012efa/components/libraries/util/app_error.c ****             m_error_data.p_file_name  = m_error_data.p_error_info->p_file_name;
 270              		.loc 1 104 0
 271 0082 1A69     		ldr	r2, [r3, #16]	@ _25, m_error_data.p_error_info
 272 0084 1288     		ldrh	r2, [r2]	@ _27, _25->line_num
 273 0086 9A61     		str	r2, [r3, #24]	@ _27, m_error_data.line_num
 105:../sdk/nRF5_SDK_12.2.0_f012efa/components/libraries/util/app_error.c ****             break;
 274              		.loc 1 105 0
 275 0088 1A69     		ldr	r2, [r3, #16]	@ _29, m_error_data.p_error_info
 276 008a ECE7     		b	.L9	@
 277              	.L11:
 278              		.align	2
 279              	.L10:
 280 008c 00000000 		.word	.LANCHOR0
 281              		.cfi_endproc
 282              	.LFE145:
 283              		.size	app_error_save_and_stop, .-app_error_save_and_stop
 284              		.bss
 285              		.align	2
 286              		.set	.LANCHOR0,. + 0
 287              		.type	m_error_data.7552, %object
 288              		.size	m_error_data.7552, 32
 289              	m_error_data.7552:
 290 0000 00000000 		.space	32
 290      00000000 
 290      00000000 
 290      00000000 
 290      00000000 
 291              		.text
 292              	.Letext0:
 293              		.file 3 "/Users/lukashann/Documents/Imperial College London/Year 3/Project/fNIRS-Musketeers/nrf52/
 294              		.file 4 "/Users/lukashann/Documents/Imperial College London/Year 3/Project/fNIRS-Musketeers/nrf52/
 295              		.file 5 "../sdk/nRF5_SDK_12.2.0_f012efa/components/toolchain/cmsis/include/core_cm4.h"
 296              		.file 6 "../sdk/nRF5_SDK_12.2.0_f012efa/components/toolchain/system_nrf52.h"
 297              		.file 7 "/Users/lukashann/Documents/Imperial College London/Year 3/Project/fNIRS-Musketeers/nrf52/
 298              		.file 8 "/Users/lukashann/Documents/Imperial College London/Year 3/Project/fNIRS-Musketeers/nrf52/
 299              		.file 9 "/Users/lukashann/Documents/Imperial College London/Year 3/Project/fNIRS-Musketeers/nrf52/
 300              		.file 10 "/Users/lukashann/Documents/Imperial College London/Year 3/Project/fNIRS-Musketeers/nrf52
 301              		.file 11 "../sdk/nRF5_SDK_12.2.0_f012efa/components/libraries/util/sdk_errors.h"
 302              		.file 12 "../sdk/nRF5_SDK_12.2.0_f012efa/components/libraries/util/app_error.h"
 303              		.file 13 "../sdk/nRF5_SDK_12.2.0_f012efa/components/libraries/util/app_util.h"
 304              		.file 14 "../sdk/nRF5_SDK_12.2.0_f012efa/components/libraries/util/app_error_weak.h"
 305              		.section	.debug_info,"",%progbits
 306              	.Ldebug_info0:
 307 0000 7D0C0000 		.4byte	0xc7d
 308 0004 0200     		.2byte	0x2
 309 0006 00000000 		.4byte	.Ldebug_abbrev0
 310 000a 04       		.byte	0x4
 311 000b 01       		.uleb128 0x1
 312 000c 34030000 		.4byte	.LASF152
 313 0010 0C       		.byte	0xc
 314 0011 0B050000 		.4byte	.LASF153
 315 0015 14010000 		.4byte	.LASF154
ARM GAS  /var/folders/nl/q97gxh4d5b321tqt4kfb6yzh0000gn/T//ccvnnYlv.s 			page 10


 316 0019 00000000 		.4byte	.Ltext0
 317 001d 90000000 		.4byte	.Letext0
 318 0021 00000000 		.4byte	.Ldebug_line0
 319 0025 02       		.uleb128 0x2
 320 0026 01       		.byte	0x1
 321 0027 06       		.byte	0x6
 322 0028 08010000 		.4byte	.LASF0
 323 002c 03       		.uleb128 0x3
 324 002d B0050000 		.4byte	.LASF3
 325 0031 03       		.byte	0x3
 326 0032 2B       		.byte	0x2b
 327 0033 37000000 		.4byte	0x37
 328 0037 02       		.uleb128 0x2
 329 0038 01       		.byte	0x1
 330 0039 08       		.byte	0x8
 331 003a 89040000 		.4byte	.LASF1
 332 003e 02       		.uleb128 0x2
 333 003f 02       		.byte	0x2
 334 0040 05       		.byte	0x5
 335 0041 0C000000 		.4byte	.LASF2
 336 0045 03       		.uleb128 0x3
 337 0046 FB050000 		.4byte	.LASF4
 338 004a 03       		.byte	0x3
 339 004b 39       		.byte	0x39
 340 004c 50000000 		.4byte	0x50
 341 0050 02       		.uleb128 0x2
 342 0051 02       		.byte	0x2
 343 0052 07       		.byte	0x7
 344 0053 44060000 		.4byte	.LASF5
 345 0057 03       		.uleb128 0x3
 346 0058 06060000 		.4byte	.LASF6
 347 005c 03       		.byte	0x3
 348 005d 4D       		.byte	0x4d
 349 005e 62000000 		.4byte	0x62
 350 0062 02       		.uleb128 0x2
 351 0063 04       		.byte	0x4
 352 0064 05       		.byte	0x5
 353 0065 AD010000 		.4byte	.LASF7
 354 0069 03       		.uleb128 0x3
 355 006a 21020000 		.4byte	.LASF8
 356 006e 03       		.byte	0x3
 357 006f 4F       		.byte	0x4f
 358 0070 74000000 		.4byte	0x74
 359 0074 02       		.uleb128 0x2
 360 0075 04       		.byte	0x4
 361 0076 07       		.byte	0x7
 362 0077 85020000 		.4byte	.LASF9
 363 007b 02       		.uleb128 0x2
 364 007c 08       		.byte	0x8
 365 007d 05       		.byte	0x5
 366 007e D6010000 		.4byte	.LASF10
 367 0082 02       		.uleb128 0x2
 368 0083 08       		.byte	0x8
 369 0084 07       		.byte	0x7
 370 0085 8F000000 		.4byte	.LASF11
 371 0089 04       		.uleb128 0x4
 372 008a 04       		.byte	0x4
ARM GAS  /var/folders/nl/q97gxh4d5b321tqt4kfb6yzh0000gn/T//ccvnnYlv.s 			page 11


 373 008b 05       		.byte	0x5
 374 008c 696E7400 		.ascii	"int\000"
 375 0090 02       		.uleb128 0x2
 376 0091 04       		.byte	0x4
 377 0092 07       		.byte	0x7
 378 0093 E9050000 		.4byte	.LASF12
 379 0097 03       		.uleb128 0x3
 380 0098 C7060000 		.4byte	.LASF13
 381 009c 04       		.byte	0x4
 382 009d 18       		.byte	0x18
 383 009e 2C000000 		.4byte	0x2c
 384 00a2 05       		.uleb128 0x5
 385 00a3 97000000 		.4byte	0x97
 386 00a7 03       		.uleb128 0x3
 387 00a8 E4010000 		.4byte	.LASF14
 388 00ac 04       		.byte	0x4
 389 00ad 24       		.byte	0x24
 390 00ae 45000000 		.4byte	0x45
 391 00b2 03       		.uleb128 0x3
 392 00b3 81040000 		.4byte	.LASF15
 393 00b7 04       		.byte	0x4
 394 00b8 2C       		.byte	0x2c
 395 00b9 57000000 		.4byte	0x57
 396 00bd 06       		.uleb128 0x6
 397 00be B2000000 		.4byte	0xb2
 398 00c2 03       		.uleb128 0x3
 399 00c3 8F060000 		.4byte	.LASF16
 400 00c7 04       		.byte	0x4
 401 00c8 30       		.byte	0x30
 402 00c9 69000000 		.4byte	0x69
 403 00cd 02       		.uleb128 0x2
 404 00ce 04       		.byte	0x4
 405 00cf 07       		.byte	0x7
 406 00d0 2B030000 		.4byte	.LASF17
 407 00d4 07       		.uleb128 0x7
 408 00d5 BA000000 		.4byte	.LASF18
 409 00d9 05       		.byte	0x5
 410 00da 4407     		.2byte	0x744
 411 00dc BD000000 		.4byte	0xbd
 412 00e0 01       		.byte	0x1
 413 00e1 01       		.byte	0x1
 414 00e2 08       		.uleb128 0x8
 415 00e3 60020000 		.4byte	.LASF19
 416 00e7 06       		.byte	0x6
 417 00e8 29       		.byte	0x29
 418 00e9 C2000000 		.4byte	0xc2
 419 00ed 01       		.byte	0x1
 420 00ee 01       		.byte	0x1
 421 00ef 02       		.uleb128 0x2
 422 00f0 08       		.byte	0x8
 423 00f1 04       		.byte	0x4
 424 00f2 C2050000 		.4byte	.LASF20
 425 00f6 09       		.uleb128 0x9
 426 00f7 04       		.byte	0x4
 427 00f8 03       		.uleb128 0x3
 428 00f9 5E040000 		.4byte	.LASF21
 429 00fd 07       		.byte	0x7
ARM GAS  /var/folders/nl/q97gxh4d5b321tqt4kfb6yzh0000gn/T//ccvnnYlv.s 			page 12


 430 00fe 07       		.byte	0x7
 431 00ff 89000000 		.4byte	0x89
 432 0103 03       		.uleb128 0x3
 433 0104 FA000000 		.4byte	.LASF22
 434 0108 08       		.byte	0x8
 435 0109 2C       		.byte	0x2c
 436 010a 62000000 		.4byte	0x62
 437 010e 03       		.uleb128 0x3
 438 010f BA050000 		.4byte	.LASF23
 439 0113 08       		.byte	0x8
 440 0114 72       		.byte	0x72
 441 0115 62000000 		.4byte	0x62
 442 0119 0A       		.uleb128 0xa
 443 011a 32040000 		.4byte	.LASF24
 444 011e 09       		.byte	0x9
 445 011f 6501     		.2byte	0x165
 446 0121 90000000 		.4byte	0x90
 447 0125 0B       		.uleb128 0xb
 448 0126 04       		.byte	0x4
 449 0127 08       		.byte	0x8
 450 0128 A6       		.byte	0xa6
 451 0129 44010000 		.4byte	0x144
 452 012d 0C       		.uleb128 0xc
 453 012e EF020000 		.4byte	.LASF25
 454 0132 08       		.byte	0x8
 455 0133 A8       		.byte	0xa8
 456 0134 19010000 		.4byte	0x119
 457 0138 0C       		.uleb128 0xc
 458 0139 59020000 		.4byte	.LASF26
 459 013d 08       		.byte	0x8
 460 013e A9       		.byte	0xa9
 461 013f 44010000 		.4byte	0x144
 462 0143 00       		.byte	0
 463 0144 0D       		.uleb128 0xd
 464 0145 37000000 		.4byte	0x37
 465 0149 54010000 		.4byte	0x154
 466 014d 0E       		.uleb128 0xe
 467 014e CD000000 		.4byte	0xcd
 468 0152 03       		.byte	0x3
 469 0153 00       		.byte	0
 470 0154 0F       		.uleb128 0xf
 471 0155 08       		.byte	0x8
 472 0156 08       		.byte	0x8
 473 0157 A3       		.byte	0xa3
 474 0158 79010000 		.4byte	0x179
 475 015c 10       		.uleb128 0x10
 476 015d 90050000 		.4byte	.LASF27
 477 0161 08       		.byte	0x8
 478 0162 A5       		.byte	0xa5
 479 0163 89000000 		.4byte	0x89
 480 0167 02       		.byte	0x2
 481 0168 23       		.byte	0x23
 482 0169 00       		.uleb128 0
 483 016a 10       		.uleb128 0x10
 484 016b 98050000 		.4byte	.LASF28
 485 016f 08       		.byte	0x8
 486 0170 AA       		.byte	0xaa
ARM GAS  /var/folders/nl/q97gxh4d5b321tqt4kfb6yzh0000gn/T//ccvnnYlv.s 			page 13


 487 0171 25010000 		.4byte	0x125
 488 0175 02       		.byte	0x2
 489 0176 23       		.byte	0x23
 490 0177 04       		.uleb128 0x4
 491 0178 00       		.byte	0
 492 0179 03       		.uleb128 0x3
 493 017a D8040000 		.4byte	.LASF29
 494 017e 08       		.byte	0x8
 495 017f AB       		.byte	0xab
 496 0180 54010000 		.4byte	0x154
 497 0184 03       		.uleb128 0x3
 498 0185 A6040000 		.4byte	.LASF30
 499 0189 08       		.byte	0x8
 500 018a AF       		.byte	0xaf
 501 018b F8000000 		.4byte	0xf8
 502 018f 03       		.uleb128 0x3
 503 0190 5C060000 		.4byte	.LASF31
 504 0194 0A       		.byte	0xa
 505 0195 16       		.byte	0x16
 506 0196 74000000 		.4byte	0x74
 507 019a 11       		.uleb128 0x11
 508 019b 46020000 		.4byte	.LASF36
 509 019f 18       		.byte	0x18
 510 01a0 0A       		.byte	0xa
 511 01a1 2F       		.byte	0x2f
 512 01a2 F9010000 		.4byte	0x1f9
 513 01a6 10       		.uleb128 0x10
 514 01a7 28060000 		.4byte	.LASF32
 515 01ab 0A       		.byte	0xa
 516 01ac 31       		.byte	0x31
 517 01ad F9010000 		.4byte	0x1f9
 518 01b1 02       		.byte	0x2
 519 01b2 23       		.byte	0x23
 520 01b3 00       		.uleb128 0
 521 01b4 12       		.uleb128 0x12
 522 01b5 5F6B00   		.ascii	"_k\000"
 523 01b8 0A       		.byte	0xa
 524 01b9 32       		.byte	0x32
 525 01ba 89000000 		.4byte	0x89
 526 01be 02       		.byte	0x2
 527 01bf 23       		.byte	0x23
 528 01c0 04       		.uleb128 0x4
 529 01c1 10       		.uleb128 0x10
 530 01c2 7B050000 		.4byte	.LASF33
 531 01c6 0A       		.byte	0xa
 532 01c7 32       		.byte	0x32
 533 01c8 89000000 		.4byte	0x89
 534 01cc 02       		.byte	0x2
 535 01cd 23       		.byte	0x23
 536 01ce 08       		.uleb128 0x8
 537 01cf 10       		.uleb128 0x10
 538 01d0 2C020000 		.4byte	.LASF34
 539 01d4 0A       		.byte	0xa
 540 01d5 32       		.byte	0x32
 541 01d6 89000000 		.4byte	0x89
 542 01da 02       		.byte	0x2
 543 01db 23       		.byte	0x23
ARM GAS  /var/folders/nl/q97gxh4d5b321tqt4kfb6yzh0000gn/T//ccvnnYlv.s 			page 14


 544 01dc 0C       		.uleb128 0xc
 545 01dd 10       		.uleb128 0x10
 546 01de BC060000 		.4byte	.LASF35
 547 01e2 0A       		.byte	0xa
 548 01e3 32       		.byte	0x32
 549 01e4 89000000 		.4byte	0x89
 550 01e8 02       		.byte	0x2
 551 01e9 23       		.byte	0x23
 552 01ea 10       		.uleb128 0x10
 553 01eb 12       		.uleb128 0x12
 554 01ec 5F7800   		.ascii	"_x\000"
 555 01ef 0A       		.byte	0xa
 556 01f0 33       		.byte	0x33
 557 01f1 FF010000 		.4byte	0x1ff
 558 01f5 02       		.byte	0x2
 559 01f6 23       		.byte	0x23
 560 01f7 14       		.uleb128 0x14
 561 01f8 00       		.byte	0
 562 01f9 13       		.uleb128 0x13
 563 01fa 04       		.byte	0x4
 564 01fb 9A010000 		.4byte	0x19a
 565 01ff 0D       		.uleb128 0xd
 566 0200 8F010000 		.4byte	0x18f
 567 0204 0F020000 		.4byte	0x20f
 568 0208 0E       		.uleb128 0xe
 569 0209 CD000000 		.4byte	0xcd
 570 020d 00       		.byte	0
 571 020e 00       		.byte	0
 572 020f 11       		.uleb128 0x11
 573 0210 54020000 		.4byte	.LASF37
 574 0214 24       		.byte	0x24
 575 0215 0A       		.byte	0xa
 576 0216 37       		.byte	0x37
 577 0217 9A020000 		.4byte	0x29a
 578 021b 10       		.uleb128 0x10
 579 021c E4000000 		.4byte	.LASF38
 580 0220 0A       		.byte	0xa
 581 0221 39       		.byte	0x39
 582 0222 89000000 		.4byte	0x89
 583 0226 02       		.byte	0x2
 584 0227 23       		.byte	0x23
 585 0228 00       		.uleb128 0
 586 0229 10       		.uleb128 0x10
 587 022a 0B070000 		.4byte	.LASF39
 588 022e 0A       		.byte	0xa
 589 022f 3A       		.byte	0x3a
 590 0230 89000000 		.4byte	0x89
 591 0234 02       		.byte	0x2
 592 0235 23       		.byte	0x23
 593 0236 04       		.uleb128 0x4
 594 0237 10       		.uleb128 0x10
 595 0238 80010000 		.4byte	.LASF40
 596 023c 0A       		.byte	0xa
 597 023d 3B       		.byte	0x3b
 598 023e 89000000 		.4byte	0x89
 599 0242 02       		.byte	0x2
 600 0243 23       		.byte	0x23
ARM GAS  /var/folders/nl/q97gxh4d5b321tqt4kfb6yzh0000gn/T//ccvnnYlv.s 			page 15


 601 0244 08       		.uleb128 0x8
 602 0245 10       		.uleb128 0x10
 603 0246 2C070000 		.4byte	.LASF41
 604 024a 0A       		.byte	0xa
 605 024b 3C       		.byte	0x3c
 606 024c 89000000 		.4byte	0x89
 607 0250 02       		.byte	0x2
 608 0251 23       		.byte	0x23
 609 0252 0C       		.uleb128 0xc
 610 0253 10       		.uleb128 0x10
 611 0254 EC030000 		.4byte	.LASF42
 612 0258 0A       		.byte	0xa
 613 0259 3D       		.byte	0x3d
 614 025a 89000000 		.4byte	0x89
 615 025e 02       		.byte	0x2
 616 025f 23       		.byte	0x23
 617 0260 10       		.uleb128 0x10
 618 0261 10       		.uleb128 0x10
 619 0262 0D030000 		.4byte	.LASF43
 620 0266 0A       		.byte	0xa
 621 0267 3E       		.byte	0x3e
 622 0268 89000000 		.4byte	0x89
 623 026c 02       		.byte	0x2
 624 026d 23       		.byte	0x23
 625 026e 14       		.uleb128 0x14
 626 026f 10       		.uleb128 0x10
 627 0270 A6050000 		.4byte	.LASF44
 628 0274 0A       		.byte	0xa
 629 0275 3F       		.byte	0x3f
 630 0276 89000000 		.4byte	0x89
 631 027a 02       		.byte	0x2
 632 027b 23       		.byte	0x23
 633 027c 18       		.uleb128 0x18
 634 027d 10       		.uleb128 0x10
 635 027e AF040000 		.4byte	.LASF45
 636 0282 0A       		.byte	0xa
 637 0283 40       		.byte	0x40
 638 0284 89000000 		.4byte	0x89
 639 0288 02       		.byte	0x2
 640 0289 23       		.byte	0x23
 641 028a 1C       		.uleb128 0x1c
 642 028b 10       		.uleb128 0x10
 643 028c F1060000 		.4byte	.LASF46
 644 0290 0A       		.byte	0xa
 645 0291 41       		.byte	0x41
 646 0292 89000000 		.4byte	0x89
 647 0296 02       		.byte	0x2
 648 0297 23       		.byte	0x23
 649 0298 20       		.uleb128 0x20
 650 0299 00       		.byte	0
 651 029a 14       		.uleb128 0x14
 652 029b 8F010000 		.4byte	.LASF47
 653 029f 0801     		.2byte	0x108
 654 02a1 0A       		.byte	0xa
 655 02a2 4A       		.byte	0x4a
 656 02a3 E3020000 		.4byte	0x2e3
 657 02a7 10       		.uleb128 0x10
ARM GAS  /var/folders/nl/q97gxh4d5b321tqt4kfb6yzh0000gn/T//ccvnnYlv.s 			page 16


 658 02a8 16000000 		.4byte	.LASF48
 659 02ac 0A       		.byte	0xa
 660 02ad 4B       		.byte	0x4b
 661 02ae E3020000 		.4byte	0x2e3
 662 02b2 02       		.byte	0x2
 663 02b3 23       		.byte	0x23
 664 02b4 00       		.uleb128 0
 665 02b5 10       		.uleb128 0x10
 666 02b6 00000000 		.4byte	.LASF49
 667 02ba 0A       		.byte	0xa
 668 02bb 4C       		.byte	0x4c
 669 02bc E3020000 		.4byte	0x2e3
 670 02c0 03       		.byte	0x3
 671 02c1 23       		.byte	0x23
 672 02c2 8001     		.uleb128 0x80
 673 02c4 10       		.uleb128 0x10
 674 02c5 3B060000 		.4byte	.LASF50
 675 02c9 0A       		.byte	0xa
 676 02ca 4E       		.byte	0x4e
 677 02cb 8F010000 		.4byte	0x18f
 678 02cf 03       		.byte	0x3
 679 02d0 23       		.byte	0x23
 680 02d1 8002     		.uleb128 0x100
 681 02d3 10       		.uleb128 0x10
 682 02d4 BD010000 		.4byte	.LASF51
 683 02d8 0A       		.byte	0xa
 684 02d9 51       		.byte	0x51
 685 02da 8F010000 		.4byte	0x18f
 686 02de 03       		.byte	0x3
 687 02df 23       		.byte	0x23
 688 02e0 8402     		.uleb128 0x104
 689 02e2 00       		.byte	0
 690 02e3 0D       		.uleb128 0xd
 691 02e4 F6000000 		.4byte	0xf6
 692 02e8 F3020000 		.4byte	0x2f3
 693 02ec 0E       		.uleb128 0xe
 694 02ed CD000000 		.4byte	0xcd
 695 02f1 1F       		.byte	0x1f
 696 02f2 00       		.byte	0
 697 02f3 14       		.uleb128 0x14
 698 02f4 F5030000 		.4byte	.LASF52
 699 02f8 9001     		.2byte	0x190
 700 02fa 0A       		.byte	0xa
 701 02fb 5D       		.byte	0x5d
 702 02fc 3A030000 		.4byte	0x33a
 703 0300 10       		.uleb128 0x10
 704 0301 28060000 		.4byte	.LASF32
 705 0305 0A       		.byte	0xa
 706 0306 5E       		.byte	0x5e
 707 0307 3A030000 		.4byte	0x33a
 708 030b 02       		.byte	0x2
 709 030c 23       		.byte	0x23
 710 030d 00       		.uleb128 0
 711 030e 10       		.uleb128 0x10
 712 030f 06050000 		.4byte	.LASF53
 713 0313 0A       		.byte	0xa
 714 0314 5F       		.byte	0x5f
ARM GAS  /var/folders/nl/q97gxh4d5b321tqt4kfb6yzh0000gn/T//ccvnnYlv.s 			page 17


 715 0315 89000000 		.4byte	0x89
 716 0319 02       		.byte	0x2
 717 031a 23       		.byte	0x23
 718 031b 04       		.uleb128 0x4
 719 031c 10       		.uleb128 0x10
 720 031d 1C020000 		.4byte	.LASF54
 721 0321 0A       		.byte	0xa
 722 0322 61       		.byte	0x61
 723 0323 40030000 		.4byte	0x340
 724 0327 02       		.byte	0x2
 725 0328 23       		.byte	0x23
 726 0329 08       		.uleb128 0x8
 727 032a 10       		.uleb128 0x10
 728 032b 8F010000 		.4byte	.LASF47
 729 032f 0A       		.byte	0xa
 730 0330 62       		.byte	0x62
 731 0331 9A020000 		.4byte	0x29a
 732 0335 03       		.byte	0x3
 733 0336 23       		.byte	0x23
 734 0337 8801     		.uleb128 0x88
 735 0339 00       		.byte	0
 736 033a 13       		.uleb128 0x13
 737 033b 04       		.byte	0x4
 738 033c F3020000 		.4byte	0x2f3
 739 0340 0D       		.uleb128 0xd
 740 0341 50030000 		.4byte	0x350
 741 0345 50030000 		.4byte	0x350
 742 0349 0E       		.uleb128 0xe
 743 034a CD000000 		.4byte	0xcd
 744 034e 1F       		.byte	0x1f
 745 034f 00       		.byte	0
 746 0350 13       		.uleb128 0x13
 747 0351 04       		.byte	0x4
 748 0352 56030000 		.4byte	0x356
 749 0356 15       		.uleb128 0x15
 750 0357 01       		.byte	0x1
 751 0358 11       		.uleb128 0x11
 752 0359 B9040000 		.4byte	.LASF55
 753 035d 08       		.byte	0x8
 754 035e 0A       		.byte	0xa
 755 035f 75       		.byte	0x75
 756 0360 81030000 		.4byte	0x381
 757 0364 10       		.uleb128 0x10
 758 0365 7A010000 		.4byte	.LASF56
 759 0369 0A       		.byte	0xa
 760 036a 76       		.byte	0x76
 761 036b 81030000 		.4byte	0x381
 762 036f 02       		.byte	0x2
 763 0370 23       		.byte	0x23
 764 0371 00       		.uleb128 0
 765 0372 10       		.uleb128 0x10
 766 0373 E3050000 		.4byte	.LASF57
 767 0377 0A       		.byte	0xa
 768 0378 77       		.byte	0x77
 769 0379 89000000 		.4byte	0x89
 770 037d 02       		.byte	0x2
 771 037e 23       		.byte	0x23
ARM GAS  /var/folders/nl/q97gxh4d5b321tqt4kfb6yzh0000gn/T//ccvnnYlv.s 			page 18


 772 037f 04       		.uleb128 0x4
 773 0380 00       		.byte	0
 774 0381 13       		.uleb128 0x13
 775 0382 04       		.byte	0x4
 776 0383 37000000 		.4byte	0x37
 777 0387 11       		.uleb128 0x11
 778 0388 E3040000 		.4byte	.LASF58
 779 038c 68       		.byte	0x68
 780 038d 0A       		.byte	0xa
 781 038e B5       		.byte	0xb5
 782 038f E1040000 		.4byte	0x4e1
 783 0393 12       		.uleb128 0x12
 784 0394 5F7000   		.ascii	"_p\000"
 785 0397 0A       		.byte	0xa
 786 0398 B6       		.byte	0xb6
 787 0399 81030000 		.4byte	0x381
 788 039d 02       		.byte	0x2
 789 039e 23       		.byte	0x23
 790 039f 00       		.uleb128 0
 791 03a0 12       		.uleb128 0x12
 792 03a1 5F7200   		.ascii	"_r\000"
 793 03a4 0A       		.byte	0xa
 794 03a5 B7       		.byte	0xb7
 795 03a6 89000000 		.4byte	0x89
 796 03aa 02       		.byte	0x2
 797 03ab 23       		.byte	0x23
 798 03ac 04       		.uleb128 0x4
 799 03ad 12       		.uleb128 0x12
 800 03ae 5F7700   		.ascii	"_w\000"
 801 03b1 0A       		.byte	0xa
 802 03b2 B8       		.byte	0xb8
 803 03b3 89000000 		.4byte	0x89
 804 03b7 02       		.byte	0x2
 805 03b8 23       		.byte	0x23
 806 03b9 08       		.uleb128 0x8
 807 03ba 10       		.uleb128 0x10
 808 03bb B6010000 		.4byte	.LASF59
 809 03bf 0A       		.byte	0xa
 810 03c0 B9       		.byte	0xb9
 811 03c1 3E000000 		.4byte	0x3e
 812 03c5 02       		.byte	0x2
 813 03c6 23       		.byte	0x23
 814 03c7 0C       		.uleb128 0xc
 815 03c8 10       		.uleb128 0x10
 816 03c9 97020000 		.4byte	.LASF60
 817 03cd 0A       		.byte	0xa
 818 03ce BA       		.byte	0xba
 819 03cf 3E000000 		.4byte	0x3e
 820 03d3 02       		.byte	0x2
 821 03d4 23       		.byte	0x23
 822 03d5 0E       		.uleb128 0xe
 823 03d6 12       		.uleb128 0x12
 824 03d7 5F626600 		.ascii	"_bf\000"
 825 03db 0A       		.byte	0xa
 826 03dc BB       		.byte	0xbb
 827 03dd 58030000 		.4byte	0x358
 828 03e1 02       		.byte	0x2
ARM GAS  /var/folders/nl/q97gxh4d5b321tqt4kfb6yzh0000gn/T//ccvnnYlv.s 			page 19


 829 03e2 23       		.byte	0x23
 830 03e3 10       		.uleb128 0x10
 831 03e4 10       		.uleb128 0x10
 832 03e5 A6000000 		.4byte	.LASF61
 833 03e9 0A       		.byte	0xa
 834 03ea BC       		.byte	0xbc
 835 03eb 89000000 		.4byte	0x89
 836 03ef 02       		.byte	0x2
 837 03f0 23       		.byte	0x23
 838 03f1 18       		.uleb128 0x18
 839 03f2 10       		.uleb128 0x10
 840 03f3 9D010000 		.4byte	.LASF62
 841 03f7 0A       		.byte	0xa
 842 03f8 C3       		.byte	0xc3
 843 03f9 F6000000 		.4byte	0xf6
 844 03fd 02       		.byte	0x2
 845 03fe 23       		.byte	0x23
 846 03ff 1C       		.uleb128 0x1c
 847 0400 10       		.uleb128 0x10
 848 0401 4E020000 		.4byte	.LASF63
 849 0405 0A       		.byte	0xa
 850 0406 C5       		.byte	0xc5
 851 0407 7B060000 		.4byte	0x67b
 852 040b 02       		.byte	0x2
 853 040c 23       		.byte	0x23
 854 040d 20       		.uleb128 0x20
 855 040e 10       		.uleb128 0x10
 856 040f 06030000 		.4byte	.LASF64
 857 0413 0A       		.byte	0xa
 858 0414 C7       		.byte	0xc7
 859 0415 A6060000 		.4byte	0x6a6
 860 0419 02       		.byte	0x2
 861 041a 23       		.byte	0x23
 862 041b 24       		.uleb128 0x24
 863 041c 10       		.uleb128 0x10
 864 041d A0050000 		.4byte	.LASF65
 865 0421 0A       		.byte	0xa
 866 0422 CA       		.byte	0xca
 867 0423 CB060000 		.4byte	0x6cb
 868 0427 02       		.byte	0x2
 869 0428 23       		.byte	0x23
 870 0429 28       		.uleb128 0x28
 871 042a 10       		.uleb128 0x10
 872 042b 01010000 		.4byte	.LASF66
 873 042f 0A       		.byte	0xa
 874 0430 CB       		.byte	0xcb
 875 0431 E6060000 		.4byte	0x6e6
 876 0435 02       		.byte	0x2
 877 0436 23       		.byte	0x23
 878 0437 2C       		.uleb128 0x2c
 879 0438 12       		.uleb128 0x12
 880 0439 5F756200 		.ascii	"_ub\000"
 881 043d 0A       		.byte	0xa
 882 043e CE       		.byte	0xce
 883 043f 58030000 		.4byte	0x358
 884 0443 02       		.byte	0x2
 885 0444 23       		.byte	0x23
ARM GAS  /var/folders/nl/q97gxh4d5b321tqt4kfb6yzh0000gn/T//ccvnnYlv.s 			page 20


 886 0445 30       		.uleb128 0x30
 887 0446 12       		.uleb128 0x12
 888 0447 5F757000 		.ascii	"_up\000"
 889 044b 0A       		.byte	0xa
 890 044c CF       		.byte	0xcf
 891 044d 81030000 		.4byte	0x381
 892 0451 02       		.byte	0x2
 893 0452 23       		.byte	0x23
 894 0453 38       		.uleb128 0x38
 895 0454 12       		.uleb128 0x12
 896 0455 5F757200 		.ascii	"_ur\000"
 897 0459 0A       		.byte	0xa
 898 045a D0       		.byte	0xd0
 899 045b 89000000 		.4byte	0x89
 900 045f 02       		.byte	0x2
 901 0460 23       		.byte	0x23
 902 0461 3C       		.uleb128 0x3c
 903 0462 10       		.uleb128 0x10
 904 0463 74010000 		.4byte	.LASF67
 905 0467 0A       		.byte	0xa
 906 0468 D3       		.byte	0xd3
 907 0469 EC060000 		.4byte	0x6ec
 908 046d 02       		.byte	0x2
 909 046e 23       		.byte	0x23
 910 046f 40       		.uleb128 0x40
 911 0470 10       		.uleb128 0x10
 912 0471 E3060000 		.4byte	.LASF68
 913 0475 0A       		.byte	0xa
 914 0476 D4       		.byte	0xd4
 915 0477 FC060000 		.4byte	0x6fc
 916 047b 02       		.byte	0x2
 917 047c 23       		.byte	0x23
 918 047d 43       		.uleb128 0x43
 919 047e 12       		.uleb128 0x12
 920 047f 5F6C6200 		.ascii	"_lb\000"
 921 0483 0A       		.byte	0xa
 922 0484 D7       		.byte	0xd7
 923 0485 58030000 		.4byte	0x358
 924 0489 02       		.byte	0x2
 925 048a 23       		.byte	0x23
 926 048b 44       		.uleb128 0x44
 927 048c 10       		.uleb128 0x10
 928 048d DA050000 		.4byte	.LASF69
 929 0491 0A       		.byte	0xa
 930 0492 DA       		.byte	0xda
 931 0493 89000000 		.4byte	0x89
 932 0497 02       		.byte	0x2
 933 0498 23       		.byte	0x23
 934 0499 4C       		.uleb128 0x4c
 935 049a 10       		.uleb128 0x10
 936 049b F5010000 		.4byte	.LASF70
 937 049f 0A       		.byte	0xa
 938 04a0 DB       		.byte	0xdb
 939 04a1 03010000 		.4byte	0x103
 940 04a5 02       		.byte	0x2
 941 04a6 23       		.byte	0x23
 942 04a7 50       		.uleb128 0x50
ARM GAS  /var/folders/nl/q97gxh4d5b321tqt4kfb6yzh0000gn/T//ccvnnYlv.s 			page 21


 943 04a8 10       		.uleb128 0x10
 944 04a9 A9020000 		.4byte	.LASF71
 945 04ad 0A       		.byte	0xa
 946 04ae DE       		.byte	0xde
 947 04af 00050000 		.4byte	0x500
 948 04b3 02       		.byte	0x2
 949 04b4 23       		.byte	0x23
 950 04b5 54       		.uleb128 0x54
 951 04b6 10       		.uleb128 0x10
 952 04b7 FA020000 		.4byte	.LASF72
 953 04bb 0A       		.byte	0xa
 954 04bc E2       		.byte	0xe2
 955 04bd 84010000 		.4byte	0x184
 956 04c1 02       		.byte	0x2
 957 04c2 23       		.byte	0x23
 958 04c3 58       		.uleb128 0x58
 959 04c4 10       		.uleb128 0x10
 960 04c5 EB040000 		.4byte	.LASF73
 961 04c9 0A       		.byte	0xa
 962 04ca E4       		.byte	0xe4
 963 04cb 79010000 		.4byte	0x179
 964 04cf 02       		.byte	0x2
 965 04d0 23       		.byte	0x23
 966 04d1 5C       		.uleb128 0x5c
 967 04d2 10       		.uleb128 0x10
 968 04d3 C0040000 		.4byte	.LASF74
 969 04d7 0A       		.byte	0xa
 970 04d8 E5       		.byte	0xe5
 971 04d9 89000000 		.4byte	0x89
 972 04dd 02       		.byte	0x2
 973 04de 23       		.byte	0x23
 974 04df 64       		.uleb128 0x64
 975 04e0 00       		.byte	0
 976 04e1 16       		.uleb128 0x16
 977 04e2 01       		.byte	0x1
 978 04e3 89000000 		.4byte	0x89
 979 04e7 00050000 		.4byte	0x500
 980 04eb 17       		.uleb128 0x17
 981 04ec 00050000 		.4byte	0x500
 982 04f0 17       		.uleb128 0x17
 983 04f1 F6000000 		.4byte	0xf6
 984 04f5 17       		.uleb128 0x17
 985 04f6 69060000 		.4byte	0x669
 986 04fa 17       		.uleb128 0x17
 987 04fb 89000000 		.4byte	0x89
 988 04ff 00       		.byte	0
 989 0500 13       		.uleb128 0x13
 990 0501 04       		.byte	0x4
 991 0502 0B050000 		.4byte	0x50b
 992 0506 05       		.uleb128 0x5
 993 0507 00050000 		.4byte	0x500
 994 050b 18       		.uleb128 0x18
 995 050c 83050000 		.4byte	.LASF75
 996 0510 2804     		.2byte	0x428
 997 0512 0A       		.byte	0xa
 998 0513 3902     		.2byte	0x239
 999 0515 69060000 		.4byte	0x669
ARM GAS  /var/folders/nl/q97gxh4d5b321tqt4kfb6yzh0000gn/T//ccvnnYlv.s 			page 22


 1000 0519 19       		.uleb128 0x19
 1001 051a CE050000 		.4byte	.LASF76
 1002 051e 0A       		.byte	0xa
 1003 051f 3B02     		.2byte	0x23b
 1004 0521 89000000 		.4byte	0x89
 1005 0525 02       		.byte	0x2
 1006 0526 23       		.byte	0x23
 1007 0527 00       		.uleb128 0
 1008 0528 19       		.uleb128 0x19
 1009 0529 C5010000 		.4byte	.LASF77
 1010 052d 0A       		.byte	0xa
 1011 052e 4002     		.2byte	0x240
 1012 0530 59070000 		.4byte	0x759
 1013 0534 02       		.byte	0x2
 1014 0535 23       		.byte	0x23
 1015 0536 04       		.uleb128 0x4
 1016 0537 19       		.uleb128 0x19
 1017 0538 70020000 		.4byte	.LASF78
 1018 053c 0A       		.byte	0xa
 1019 053d 4002     		.2byte	0x240
 1020 053f 59070000 		.4byte	0x759
 1021 0543 02       		.byte	0x2
 1022 0544 23       		.byte	0x23
 1023 0545 08       		.uleb128 0x8
 1024 0546 19       		.uleb128 0x19
 1025 0547 3E020000 		.4byte	.LASF79
 1026 054b 0A       		.byte	0xa
 1027 054c 4002     		.2byte	0x240
 1028 054e 59070000 		.4byte	0x759
 1029 0552 02       		.byte	0x2
 1030 0553 23       		.byte	0x23
 1031 0554 0C       		.uleb128 0xc
 1032 0555 19       		.uleb128 0x19
 1033 0556 01050000 		.4byte	.LASF80
 1034 055a 0A       		.byte	0xa
 1035 055b 4202     		.2byte	0x242
 1036 055d 89000000 		.4byte	0x89
 1037 0561 02       		.byte	0x2
 1038 0562 23       		.byte	0x23
 1039 0563 10       		.uleb128 0x10
 1040 0564 19       		.uleb128 0x19
 1041 0565 26000000 		.4byte	.LASF81
 1042 0569 0A       		.byte	0xa
 1043 056a 4302     		.2byte	0x243
 1044 056c 74090000 		.4byte	0x974
 1045 0570 02       		.byte	0x2
 1046 0571 23       		.byte	0x23
 1047 0572 14       		.uleb128 0x14
 1048 0573 19       		.uleb128 0x19
 1049 0574 62050000 		.4byte	.LASF82
 1050 0578 0A       		.byte	0xa
 1051 0579 4602     		.2byte	0x246
 1052 057b 89000000 		.4byte	0x89
 1053 057f 02       		.byte	0x2
 1054 0580 23       		.byte	0x23
 1055 0581 30       		.uleb128 0x30
 1056 0582 19       		.uleb128 0x19
ARM GAS  /var/folders/nl/q97gxh4d5b321tqt4kfb6yzh0000gn/T//ccvnnYlv.s 			page 23


 1057 0583 50050000 		.4byte	.LASF83
 1058 0587 0A       		.byte	0xa
 1059 0588 4702     		.2byte	0x247
 1060 058a 8A090000 		.4byte	0x98a
 1061 058e 02       		.byte	0x2
 1062 058f 23       		.byte	0x23
 1063 0590 34       		.uleb128 0x34
 1064 0591 19       		.uleb128 0x19
 1065 0592 FD030000 		.4byte	.LASF84
 1066 0596 0A       		.byte	0xa
 1067 0597 4902     		.2byte	0x249
 1068 0599 89000000 		.4byte	0x89
 1069 059d 02       		.byte	0x2
 1070 059e 23       		.byte	0x23
 1071 059f 38       		.uleb128 0x38
 1072 05a0 19       		.uleb128 0x19
 1073 05a1 58050000 		.4byte	.LASF85
 1074 05a5 0A       		.byte	0xa
 1075 05a6 4B02     		.2byte	0x24b
 1076 05a8 9C090000 		.4byte	0x99c
 1077 05ac 02       		.byte	0x2
 1078 05ad 23       		.byte	0x23
 1079 05ae 3C       		.uleb128 0x3c
 1080 05af 19       		.uleb128 0x19
 1081 05b0 E7020000 		.4byte	.LASF86
 1082 05b4 0A       		.byte	0xa
 1083 05b5 4E02     		.2byte	0x24e
 1084 05b7 F9010000 		.4byte	0x1f9
 1085 05bb 02       		.byte	0x2
 1086 05bc 23       		.byte	0x23
 1087 05bd 40       		.uleb128 0x40
 1088 05be 19       		.uleb128 0x19
 1089 05bf CC010000 		.4byte	.LASF87
 1090 05c3 0A       		.byte	0xa
 1091 05c4 4F02     		.2byte	0x24f
 1092 05c6 89000000 		.4byte	0x89
 1093 05ca 02       		.byte	0x2
 1094 05cb 23       		.byte	0x23
 1095 05cc 44       		.uleb128 0x44
 1096 05cd 19       		.uleb128 0x19
 1097 05ce 27070000 		.4byte	.LASF88
 1098 05d2 0A       		.byte	0xa
 1099 05d3 5002     		.2byte	0x250
 1100 05d5 F9010000 		.4byte	0x1f9
 1101 05d9 02       		.byte	0x2
 1102 05da 23       		.byte	0x23
 1103 05db 48       		.uleb128 0x48
 1104 05dc 19       		.uleb128 0x19
 1105 05dd 39040000 		.4byte	.LASF89
 1106 05e1 0A       		.byte	0xa
 1107 05e2 5102     		.2byte	0x251
 1108 05e4 A2090000 		.4byte	0x9a2
 1109 05e8 02       		.byte	0x2
 1110 05e9 23       		.byte	0x23
 1111 05ea 4C       		.uleb128 0x4c
 1112 05eb 19       		.uleb128 0x19
 1113 05ec 7D020000 		.4byte	.LASF90
ARM GAS  /var/folders/nl/q97gxh4d5b321tqt4kfb6yzh0000gn/T//ccvnnYlv.s 			page 24


 1114 05f0 0A       		.byte	0xa
 1115 05f1 5402     		.2byte	0x254
 1116 05f3 89000000 		.4byte	0x89
 1117 05f7 02       		.byte	0x2
 1118 05f8 23       		.byte	0x23
 1119 05f9 50       		.uleb128 0x50
 1120 05fa 19       		.uleb128 0x19
 1121 05fb ED010000 		.4byte	.LASF91
 1122 05ff 0A       		.byte	0xa
 1123 0600 5502     		.2byte	0x255
 1124 0602 69060000 		.4byte	0x669
 1125 0606 02       		.byte	0x2
 1126 0607 23       		.byte	0x23
 1127 0608 54       		.uleb128 0x54
 1128 0609 19       		.uleb128 0x19
 1129 060a F5020000 		.4byte	.LASF92
 1130 060e 0A       		.byte	0xa
 1131 060f 7802     		.2byte	0x278
 1132 0611 52090000 		.4byte	0x952
 1133 0615 02       		.byte	0x2
 1134 0616 23       		.byte	0x23
 1135 0617 58       		.uleb128 0x58
 1136 0618 19       		.uleb128 0x19
 1137 0619 F5030000 		.4byte	.LASF52
 1138 061d 0A       		.byte	0xa
 1139 061e 7C02     		.2byte	0x27c
 1140 0620 3A030000 		.4byte	0x33a
 1141 0624 03       		.byte	0x3
 1142 0625 23       		.byte	0x23
 1143 0626 C802     		.uleb128 0x148
 1144 0628 19       		.uleb128 0x19
 1145 0629 54000000 		.4byte	.LASF93
 1146 062d 0A       		.byte	0xa
 1147 062e 7D02     		.2byte	0x27d
 1148 0630 F3020000 		.4byte	0x2f3
 1149 0634 03       		.byte	0x3
 1150 0635 23       		.byte	0x23
 1151 0636 CC02     		.uleb128 0x14c
 1152 0638 19       		.uleb128 0x19
 1153 0639 D9060000 		.4byte	.LASF94
 1154 063d 0A       		.byte	0xa
 1155 063e 8102     		.2byte	0x281
 1156 0640 B4090000 		.4byte	0x9b4
 1157 0644 03       		.byte	0x3
 1158 0645 23       		.byte	0x23
 1159 0646 DC05     		.uleb128 0x2dc
 1160 0648 19       		.uleb128 0x19
 1161 0649 A5010000 		.4byte	.LASF95
 1162 064d 0A       		.byte	0xa
 1163 064e 8602     		.2byte	0x286
 1164 0650 18070000 		.4byte	0x718
 1165 0654 03       		.byte	0x3
 1166 0655 23       		.byte	0x23
 1167 0656 E005     		.uleb128 0x2e0
 1168 0658 19       		.uleb128 0x19
 1169 0659 8A010000 		.4byte	.LASF96
 1170 065d 0A       		.byte	0xa
ARM GAS  /var/folders/nl/q97gxh4d5b321tqt4kfb6yzh0000gn/T//ccvnnYlv.s 			page 25


 1171 065e 8702     		.2byte	0x287
 1172 0660 C0090000 		.4byte	0x9c0
 1173 0664 03       		.byte	0x3
 1174 0665 23       		.byte	0x23
 1175 0666 EC05     		.uleb128 0x2ec
 1176 0668 00       		.byte	0
 1177 0669 13       		.uleb128 0x13
 1178 066a 04       		.byte	0x4
 1179 066b 6F060000 		.4byte	0x66f
 1180 066f 02       		.uleb128 0x2
 1181 0670 01       		.byte	0x1
 1182 0671 08       		.byte	0x8
 1183 0672 D5050000 		.4byte	.LASF97
 1184 0676 05       		.uleb128 0x5
 1185 0677 6F060000 		.4byte	0x66f
 1186 067b 13       		.uleb128 0x13
 1187 067c 04       		.byte	0x4
 1188 067d E1040000 		.4byte	0x4e1
 1189 0681 16       		.uleb128 0x16
 1190 0682 01       		.byte	0x1
 1191 0683 89000000 		.4byte	0x89
 1192 0687 A0060000 		.4byte	0x6a0
 1193 068b 17       		.uleb128 0x17
 1194 068c 00050000 		.4byte	0x500
 1195 0690 17       		.uleb128 0x17
 1196 0691 F6000000 		.4byte	0xf6
 1197 0695 17       		.uleb128 0x17
 1198 0696 A0060000 		.4byte	0x6a0
 1199 069a 17       		.uleb128 0x17
 1200 069b 89000000 		.4byte	0x89
 1201 069f 00       		.byte	0
 1202 06a0 13       		.uleb128 0x13
 1203 06a1 04       		.byte	0x4
 1204 06a2 76060000 		.4byte	0x676
 1205 06a6 13       		.uleb128 0x13
 1206 06a7 04       		.byte	0x4
 1207 06a8 81060000 		.4byte	0x681
 1208 06ac 16       		.uleb128 0x16
 1209 06ad 01       		.byte	0x1
 1210 06ae 0E010000 		.4byte	0x10e
 1211 06b2 CB060000 		.4byte	0x6cb
 1212 06b6 17       		.uleb128 0x17
 1213 06b7 00050000 		.4byte	0x500
 1214 06bb 17       		.uleb128 0x17
 1215 06bc F6000000 		.4byte	0xf6
 1216 06c0 17       		.uleb128 0x17
 1217 06c1 0E010000 		.4byte	0x10e
 1218 06c5 17       		.uleb128 0x17
 1219 06c6 89000000 		.4byte	0x89
 1220 06ca 00       		.byte	0
 1221 06cb 13       		.uleb128 0x13
 1222 06cc 04       		.byte	0x4
 1223 06cd AC060000 		.4byte	0x6ac
 1224 06d1 16       		.uleb128 0x16
 1225 06d2 01       		.byte	0x1
 1226 06d3 89000000 		.4byte	0x89
 1227 06d7 E6060000 		.4byte	0x6e6
ARM GAS  /var/folders/nl/q97gxh4d5b321tqt4kfb6yzh0000gn/T//ccvnnYlv.s 			page 26


 1228 06db 17       		.uleb128 0x17
 1229 06dc 00050000 		.4byte	0x500
 1230 06e0 17       		.uleb128 0x17
 1231 06e1 F6000000 		.4byte	0xf6
 1232 06e5 00       		.byte	0
 1233 06e6 13       		.uleb128 0x13
 1234 06e7 04       		.byte	0x4
 1235 06e8 D1060000 		.4byte	0x6d1
 1236 06ec 0D       		.uleb128 0xd
 1237 06ed 37000000 		.4byte	0x37
 1238 06f1 FC060000 		.4byte	0x6fc
 1239 06f5 0E       		.uleb128 0xe
 1240 06f6 CD000000 		.4byte	0xcd
 1241 06fa 02       		.byte	0x2
 1242 06fb 00       		.byte	0
 1243 06fc 0D       		.uleb128 0xd
 1244 06fd 37000000 		.4byte	0x37
 1245 0701 0C070000 		.4byte	0x70c
 1246 0705 0E       		.uleb128 0xe
 1247 0706 CD000000 		.4byte	0xcd
 1248 070a 00       		.byte	0
 1249 070b 00       		.byte	0
 1250 070c 0A       		.uleb128 0xa
 1251 070d D1040000 		.4byte	.LASF98
 1252 0711 0A       		.byte	0xa
 1253 0712 1F01     		.2byte	0x11f
 1254 0714 87030000 		.4byte	0x387
 1255 0718 1A       		.uleb128 0x1a
 1256 0719 C1060000 		.4byte	.LASF99
 1257 071d 0C       		.byte	0xc
 1258 071e 0A       		.byte	0xa
 1259 071f 2301     		.2byte	0x123
 1260 0721 53070000 		.4byte	0x753
 1261 0725 19       		.uleb128 0x19
 1262 0726 28060000 		.4byte	.LASF32
 1263 072a 0A       		.byte	0xa
 1264 072b 2501     		.2byte	0x125
 1265 072d 53070000 		.4byte	0x753
 1266 0731 02       		.byte	0x2
 1267 0732 23       		.byte	0x23
 1268 0733 00       		.uleb128 0
 1269 0734 19       		.uleb128 0x19
 1270 0735 BC020000 		.4byte	.LASF100
 1271 0739 0A       		.byte	0xa
 1272 073a 2601     		.2byte	0x126
 1273 073c 89000000 		.4byte	0x89
 1274 0740 02       		.byte	0x2
 1275 0741 23       		.byte	0x23
 1276 0742 04       		.uleb128 0x4
 1277 0743 19       		.uleb128 0x19
 1278 0744 97040000 		.4byte	.LASF101
 1279 0748 0A       		.byte	0xa
 1280 0749 2701     		.2byte	0x127
 1281 074b 59070000 		.4byte	0x759
 1282 074f 02       		.byte	0x2
 1283 0750 23       		.byte	0x23
 1284 0751 08       		.uleb128 0x8
ARM GAS  /var/folders/nl/q97gxh4d5b321tqt4kfb6yzh0000gn/T//ccvnnYlv.s 			page 27


 1285 0752 00       		.byte	0
 1286 0753 13       		.uleb128 0x13
 1287 0754 04       		.byte	0x4
 1288 0755 18070000 		.4byte	0x718
 1289 0759 13       		.uleb128 0x13
 1290 075a 04       		.byte	0x4
 1291 075b 0C070000 		.4byte	0x70c
 1292 075f 1A       		.uleb128 0x1a
 1293 0760 1E000000 		.4byte	.LASF102
 1294 0764 0E       		.byte	0xe
 1295 0765 0A       		.byte	0xa
 1296 0766 3F01     		.2byte	0x13f
 1297 0768 9A070000 		.4byte	0x79a
 1298 076c 19       		.uleb128 0x19
 1299 076d 8A050000 		.4byte	.LASF103
 1300 0771 0A       		.byte	0xa
 1301 0772 4001     		.2byte	0x140
 1302 0774 9A070000 		.4byte	0x79a
 1303 0778 02       		.byte	0x2
 1304 0779 23       		.byte	0x23
 1305 077a 00       		.uleb128 0
 1306 077b 19       		.uleb128 0x19
 1307 077c 00030000 		.4byte	.LASF104
 1308 0780 0A       		.byte	0xa
 1309 0781 4101     		.2byte	0x141
 1310 0783 9A070000 		.4byte	0x79a
 1311 0787 02       		.byte	0x2
 1312 0788 23       		.byte	0x23
 1313 0789 06       		.uleb128 0x6
 1314 078a 19       		.uleb128 0x19
 1315 078b 57060000 		.4byte	.LASF105
 1316 078f 0A       		.byte	0xa
 1317 0790 4201     		.2byte	0x142
 1318 0792 50000000 		.4byte	0x50
 1319 0796 02       		.byte	0x2
 1320 0797 23       		.byte	0x23
 1321 0798 0C       		.uleb128 0xc
 1322 0799 00       		.byte	0
 1323 079a 0D       		.uleb128 0xd
 1324 079b 50000000 		.4byte	0x50
 1325 079f AA070000 		.4byte	0x7aa
 1326 07a3 0E       		.uleb128 0xe
 1327 07a4 CD000000 		.4byte	0xcd
 1328 07a8 02       		.byte	0x2
 1329 07a9 00       		.byte	0
 1330 07aa 1B       		.uleb128 0x1b
 1331 07ab D0       		.byte	0xd0
 1332 07ac 0A       		.byte	0xa
 1333 07ad 5902     		.2byte	0x259
 1334 07af DA080000 		.4byte	0x8da
 1335 07b3 19       		.uleb128 0x19
 1336 07b4 98060000 		.4byte	.LASF106
 1337 07b8 0A       		.byte	0xa
 1338 07b9 5B02     		.2byte	0x25b
 1339 07bb 90000000 		.4byte	0x90
 1340 07bf 02       		.byte	0x2
 1341 07c0 23       		.byte	0x23
ARM GAS  /var/folders/nl/q97gxh4d5b321tqt4kfb6yzh0000gn/T//ccvnnYlv.s 			page 28


 1342 07c1 00       		.uleb128 0
 1343 07c2 19       		.uleb128 0x19
 1344 07c3 2E060000 		.4byte	.LASF107
 1345 07c7 0A       		.byte	0xa
 1346 07c8 5C02     		.2byte	0x25c
 1347 07ca 69060000 		.4byte	0x669
 1348 07ce 02       		.byte	0x2
 1349 07cf 23       		.byte	0x23
 1350 07d0 04       		.uleb128 0x4
 1351 07d1 19       		.uleb128 0x19
 1352 07d2 DA020000 		.4byte	.LASF108
 1353 07d6 0A       		.byte	0xa
 1354 07d7 5D02     		.2byte	0x25d
 1355 07d9 DA080000 		.4byte	0x8da
 1356 07dd 02       		.byte	0x2
 1357 07de 23       		.byte	0x23
 1358 07df 08       		.uleb128 0x8
 1359 07e0 19       		.uleb128 0x19
 1360 07e1 FC060000 		.4byte	.LASF109
 1361 07e5 0A       		.byte	0xa
 1362 07e6 5E02     		.2byte	0x25e
 1363 07e8 0F020000 		.4byte	0x20f
 1364 07ec 02       		.byte	0x2
 1365 07ed 23       		.byte	0x23
 1366 07ee 24       		.uleb128 0x24
 1367 07ef 19       		.uleb128 0x19
 1368 07f0 08040000 		.4byte	.LASF110
 1369 07f4 0A       		.byte	0xa
 1370 07f5 5F02     		.2byte	0x25f
 1371 07f7 89000000 		.4byte	0x89
 1372 07fb 02       		.byte	0x2
 1373 07fc 23       		.byte	0x23
 1374 07fd 48       		.uleb128 0x48
 1375 07fe 19       		.uleb128 0x19
 1376 07ff C3020000 		.4byte	.LASF111
 1377 0803 0A       		.byte	0xa
 1378 0804 6002     		.2byte	0x260
 1379 0806 82000000 		.4byte	0x82
 1380 080a 02       		.byte	0x2
 1381 080b 23       		.byte	0x23
 1382 080c 50       		.uleb128 0x50
 1383 080d 19       		.uleb128 0x19
 1384 080e 14070000 		.4byte	.LASF112
 1385 0812 0A       		.byte	0xa
 1386 0813 6102     		.2byte	0x261
 1387 0815 5F070000 		.4byte	0x75f
 1388 0819 02       		.byte	0x2
 1389 081a 23       		.byte	0x23
 1390 081b 58       		.uleb128 0x58
 1391 081c 19       		.uleb128 0x19
 1392 081d F4040000 		.4byte	.LASF113
 1393 0821 0A       		.byte	0xa
 1394 0822 6202     		.2byte	0x262
 1395 0824 79010000 		.4byte	0x179
 1396 0828 02       		.byte	0x2
 1397 0829 23       		.byte	0x23
 1398 082a 68       		.uleb128 0x68
ARM GAS  /var/folders/nl/q97gxh4d5b321tqt4kfb6yzh0000gn/T//ccvnnYlv.s 			page 29


 1399 082b 19       		.uleb128 0x19
 1400 082c 19070000 		.4byte	.LASF114
 1401 0830 0A       		.byte	0xa
 1402 0831 6302     		.2byte	0x263
 1403 0833 79010000 		.4byte	0x179
 1404 0837 02       		.byte	0x2
 1405 0838 23       		.byte	0x23
 1406 0839 70       		.uleb128 0x70
 1407 083a 19       		.uleb128 0x19
 1408 083b D6000000 		.4byte	.LASF115
 1409 083f 0A       		.byte	0xa
 1410 0840 6402     		.2byte	0x264
 1411 0842 79010000 		.4byte	0x179
 1412 0846 02       		.byte	0x2
 1413 0847 23       		.byte	0x23
 1414 0848 78       		.uleb128 0x78
 1415 0849 19       		.uleb128 0x19
 1416 084a CF060000 		.4byte	.LASF116
 1417 084e 0A       		.byte	0xa
 1418 084f 6502     		.2byte	0x265
 1419 0851 EA080000 		.4byte	0x8ea
 1420 0855 03       		.byte	0x3
 1421 0856 23       		.byte	0x23
 1422 0857 8001     		.uleb128 0x80
 1423 0859 19       		.uleb128 0x19
 1424 085a CE020000 		.4byte	.LASF117
 1425 085e 0A       		.byte	0xa
 1426 085f 6602     		.2byte	0x266
 1427 0861 FA080000 		.4byte	0x8fa
 1428 0865 03       		.byte	0x3
 1429 0866 23       		.byte	0x23
 1430 0867 8801     		.uleb128 0x88
 1431 0869 19       		.uleb128 0x19
 1432 086a 64060000 		.4byte	.LASF118
 1433 086e 0A       		.byte	0xa
 1434 086f 6702     		.2byte	0x267
 1435 0871 89000000 		.4byte	0x89
 1436 0875 03       		.byte	0x3
 1437 0876 23       		.byte	0x23
 1438 0877 A001     		.uleb128 0xa0
 1439 0879 19       		.uleb128 0x19
 1440 087a 0E020000 		.4byte	.LASF119
 1441 087e 0A       		.byte	0xa
 1442 087f 6802     		.2byte	0x268
 1443 0881 79010000 		.4byte	0x179
 1444 0885 03       		.byte	0x3
 1445 0886 23       		.byte	0x23
 1446 0887 A401     		.uleb128 0xa4
 1447 0889 19       		.uleb128 0x19
 1448 088a C7000000 		.4byte	.LASF120
 1449 088e 0A       		.byte	0xa
 1450 088f 6902     		.2byte	0x269
 1451 0891 79010000 		.4byte	0x179
 1452 0895 03       		.byte	0x3
 1453 0896 23       		.byte	0x23
 1454 0897 AC01     		.uleb128 0xac
 1455 0899 19       		.uleb128 0x19
ARM GAS  /var/folders/nl/q97gxh4d5b321tqt4kfb6yzh0000gn/T//ccvnnYlv.s 			page 30


 1456 089a FD010000 		.4byte	.LASF121
 1457 089e 0A       		.byte	0xa
 1458 089f 6A02     		.2byte	0x26a
 1459 08a1 79010000 		.4byte	0x179
 1460 08a5 03       		.byte	0x3
 1461 08a6 23       		.byte	0x23
 1462 08a7 B401     		.uleb128 0xb4
 1463 08a9 19       		.uleb128 0x19
 1464 08aa 6F000000 		.4byte	.LASF122
 1465 08ae 0A       		.byte	0xa
 1466 08af 6B02     		.2byte	0x26b
 1467 08b1 79010000 		.4byte	0x179
 1468 08b5 03       		.byte	0x3
 1469 08b6 23       		.byte	0x23
 1470 08b7 BC01     		.uleb128 0xbc
 1471 08b9 19       		.uleb128 0x19
 1472 08ba 7E000000 		.4byte	.LASF123
 1473 08be 0A       		.byte	0xa
 1474 08bf 6C02     		.2byte	0x26c
 1475 08c1 79010000 		.4byte	0x179
 1476 08c5 03       		.byte	0x3
 1477 08c6 23       		.byte	0x23
 1478 08c7 C401     		.uleb128 0xc4
 1479 08c9 19       		.uleb128 0x19
 1480 08ca 9D040000 		.4byte	.LASF124
 1481 08ce 0A       		.byte	0xa
 1482 08cf 6D02     		.2byte	0x26d
 1483 08d1 89000000 		.4byte	0x89
 1484 08d5 03       		.byte	0x3
 1485 08d6 23       		.byte	0x23
 1486 08d7 CC01     		.uleb128 0xcc
 1487 08d9 00       		.byte	0
 1488 08da 0D       		.uleb128 0xd
 1489 08db 6F060000 		.4byte	0x66f
 1490 08df EA080000 		.4byte	0x8ea
 1491 08e3 0E       		.uleb128 0xe
 1492 08e4 CD000000 		.4byte	0xcd
 1493 08e8 19       		.byte	0x19
 1494 08e9 00       		.byte	0
 1495 08ea 0D       		.uleb128 0xd
 1496 08eb 6F060000 		.4byte	0x66f
 1497 08ef FA080000 		.4byte	0x8fa
 1498 08f3 0E       		.uleb128 0xe
 1499 08f4 CD000000 		.4byte	0xcd
 1500 08f8 07       		.byte	0x7
 1501 08f9 00       		.byte	0
 1502 08fa 0D       		.uleb128 0xd
 1503 08fb 6F060000 		.4byte	0x66f
 1504 08ff 0A090000 		.4byte	0x90a
 1505 0903 0E       		.uleb128 0xe
 1506 0904 CD000000 		.4byte	0xcd
 1507 0908 17       		.byte	0x17
 1508 0909 00       		.byte	0
 1509 090a 1B       		.uleb128 0x1b
 1510 090b F0       		.byte	0xf0
 1511 090c 0A       		.byte	0xa
 1512 090d 7202     		.2byte	0x272
ARM GAS  /var/folders/nl/q97gxh4d5b321tqt4kfb6yzh0000gn/T//ccvnnYlv.s 			page 31


 1513 090f 32090000 		.4byte	0x932
 1514 0913 19       		.uleb128 0x19
 1515 0914 E5030000 		.4byte	.LASF125
 1516 0918 0A       		.byte	0xa
 1517 0919 7502     		.2byte	0x275
 1518 091b 32090000 		.4byte	0x932
 1519 091f 02       		.byte	0x2
 1520 0920 23       		.byte	0x23
 1521 0921 00       		.uleb128 0
 1522 0922 19       		.uleb128 0x19
 1523 0923 17030000 		.4byte	.LASF126
 1524 0927 0A       		.byte	0xa
 1525 0928 7602     		.2byte	0x276
 1526 092a 42090000 		.4byte	0x942
 1527 092e 02       		.byte	0x2
 1528 092f 23       		.byte	0x23
 1529 0930 78       		.uleb128 0x78
 1530 0931 00       		.byte	0
 1531 0932 0D       		.uleb128 0xd
 1532 0933 81030000 		.4byte	0x381
 1533 0937 42090000 		.4byte	0x942
 1534 093b 0E       		.uleb128 0xe
 1535 093c CD000000 		.4byte	0xcd
 1536 0940 1D       		.byte	0x1d
 1537 0941 00       		.byte	0
 1538 0942 0D       		.uleb128 0xd
 1539 0943 90000000 		.4byte	0x90
 1540 0947 52090000 		.4byte	0x952
 1541 094b 0E       		.uleb128 0xe
 1542 094c CD000000 		.4byte	0xcd
 1543 0950 1D       		.byte	0x1d
 1544 0951 00       		.byte	0
 1545 0952 1C       		.uleb128 0x1c
 1546 0953 F0       		.byte	0xf0
 1547 0954 0A       		.byte	0xa
 1548 0955 5702     		.2byte	0x257
 1549 0957 74090000 		.4byte	0x974
 1550 095b 1D       		.uleb128 0x1d
 1551 095c 83050000 		.4byte	.LASF75
 1552 0960 0A       		.byte	0xa
 1553 0961 6E02     		.2byte	0x26e
 1554 0963 AA070000 		.4byte	0x7aa
 1555 0967 1D       		.uleb128 0x1d
 1556 0968 E9060000 		.4byte	.LASF127
 1557 096c 0A       		.byte	0xa
 1558 096d 7702     		.2byte	0x277
 1559 096f 0A090000 		.4byte	0x90a
 1560 0973 00       		.byte	0
 1561 0974 0D       		.uleb128 0xd
 1562 0975 6F060000 		.4byte	0x66f
 1563 0979 84090000 		.4byte	0x984
 1564 097d 0E       		.uleb128 0xe
 1565 097e CD000000 		.4byte	0xcd
 1566 0982 18       		.byte	0x18
 1567 0983 00       		.byte	0
 1568 0984 1E       		.uleb128 0x1e
 1569 0985 AF000000 		.4byte	.LASF155
ARM GAS  /var/folders/nl/q97gxh4d5b321tqt4kfb6yzh0000gn/T//ccvnnYlv.s 			page 32


 1570 0989 01       		.byte	0x1
 1571 098a 13       		.uleb128 0x13
 1572 098b 04       		.byte	0x4
 1573 098c 84090000 		.4byte	0x984
 1574 0990 1F       		.uleb128 0x1f
 1575 0991 01       		.byte	0x1
 1576 0992 9C090000 		.4byte	0x99c
 1577 0996 17       		.uleb128 0x17
 1578 0997 00050000 		.4byte	0x500
 1579 099b 00       		.byte	0
 1580 099c 13       		.uleb128 0x13
 1581 099d 04       		.byte	0x4
 1582 099e 90090000 		.4byte	0x990
 1583 09a2 13       		.uleb128 0x13
 1584 09a3 04       		.byte	0x4
 1585 09a4 F9010000 		.4byte	0x1f9
 1586 09a8 1F       		.uleb128 0x1f
 1587 09a9 01       		.byte	0x1
 1588 09aa B4090000 		.4byte	0x9b4
 1589 09ae 17       		.uleb128 0x17
 1590 09af 89000000 		.4byte	0x89
 1591 09b3 00       		.byte	0
 1592 09b4 13       		.uleb128 0x13
 1593 09b5 04       		.byte	0x4
 1594 09b6 BA090000 		.4byte	0x9ba
 1595 09ba 13       		.uleb128 0x13
 1596 09bb 04       		.byte	0x4
 1597 09bc A8090000 		.4byte	0x9a8
 1598 09c0 0D       		.uleb128 0xd
 1599 09c1 0C070000 		.4byte	0x70c
 1600 09c5 D0090000 		.4byte	0x9d0
 1601 09c9 0E       		.uleb128 0xe
 1602 09ca CD000000 		.4byte	0xcd
 1603 09ce 02       		.byte	0x2
 1604 09cf 00       		.byte	0
 1605 09d0 07       		.uleb128 0x7
 1606 09d1 32020000 		.4byte	.LASF128
 1607 09d5 0A       		.byte	0xa
 1608 09d6 FE02     		.2byte	0x2fe
 1609 09d8 00050000 		.4byte	0x500
 1610 09dc 01       		.byte	0x1
 1611 09dd 01       		.byte	0x1
 1612 09de 07       		.uleb128 0x7
 1613 09df 7C060000 		.4byte	.LASF129
 1614 09e3 0A       		.byte	0xa
 1615 09e4 FF02     		.2byte	0x2ff
 1616 09e6 06050000 		.4byte	0x506
 1617 09ea 01       		.byte	0x1
 1618 09eb 01       		.byte	0x1
 1619 09ec 03       		.uleb128 0x3
 1620 09ed 20030000 		.4byte	.LASF130
 1621 09f1 0B       		.byte	0xb
 1622 09f2 74       		.byte	0x74
 1623 09f3 C2000000 		.4byte	0xc2
 1624 09f7 0F       		.uleb128 0xf
 1625 09f8 0C       		.byte	0xc
 1626 09f9 0C       		.byte	0xc
ARM GAS  /var/folders/nl/q97gxh4d5b321tqt4kfb6yzh0000gn/T//ccvnnYlv.s 			page 33


 1627 09fa 32       		.byte	0x32
 1628 09fb 2A0A0000 		.4byte	0xa2a
 1629 09ff 10       		.uleb128 0x10
 1630 0a00 C1030000 		.4byte	.LASF131
 1631 0a04 0C       		.byte	0xc
 1632 0a05 34       		.byte	0x34
 1633 0a06 A7000000 		.4byte	0xa7
 1634 0a0a 02       		.byte	0x2
 1635 0a0b 23       		.byte	0x23
 1636 0a0c 00       		.uleb128 0
 1637 0a0d 10       		.uleb128 0x10
 1638 0a0e 9D020000 		.4byte	.LASF132
 1639 0a12 0C       		.byte	0xc
 1640 0a13 35       		.byte	0x35
 1641 0a14 2A0A0000 		.4byte	0xa2a
 1642 0a18 02       		.byte	0x2
 1643 0a19 23       		.byte	0x23
 1644 0a1a 04       		.uleb128 0x4
 1645 0a1b 10       		.uleb128 0x10
 1646 0a1c B8030000 		.4byte	.LASF133
 1647 0a20 0C       		.byte	0xc
 1648 0a21 36       		.byte	0x36
 1649 0a22 C2000000 		.4byte	0xc2
 1650 0a26 02       		.byte	0x2
 1651 0a27 23       		.byte	0x23
 1652 0a28 08       		.uleb128 0x8
 1653 0a29 00       		.byte	0
 1654 0a2a 13       		.uleb128 0x13
 1655 0a2b 04       		.byte	0x4
 1656 0a2c A2000000 		.4byte	0xa2
 1657 0a30 03       		.uleb128 0x3
 1658 0a31 ED000000 		.4byte	.LASF134
 1659 0a35 0C       		.byte	0xc
 1660 0a36 37       		.byte	0x37
 1661 0a37 F7090000 		.4byte	0x9f7
 1662 0a3b 0F       		.uleb128 0xf
 1663 0a3c 08       		.byte	0x8
 1664 0a3d 0C       		.byte	0xc
 1665 0a3e 3B       		.byte	0x3b
 1666 0a3f 600A0000 		.4byte	0xa60
 1667 0a43 10       		.uleb128 0x10
 1668 0a44 C1030000 		.4byte	.LASF131
 1669 0a48 0C       		.byte	0xc
 1670 0a49 3D       		.byte	0x3d
 1671 0a4a A7000000 		.4byte	0xa7
 1672 0a4e 02       		.byte	0x2
 1673 0a4f 23       		.byte	0x23
 1674 0a50 00       		.uleb128 0
 1675 0a51 10       		.uleb128 0x10
 1676 0a52 9D020000 		.4byte	.LASF132
 1677 0a56 0C       		.byte	0xc
 1678 0a57 3E       		.byte	0x3e
 1679 0a58 2A0A0000 		.4byte	0xa2a
 1680 0a5c 02       		.byte	0x2
 1681 0a5d 23       		.byte	0x23
 1682 0a5e 04       		.uleb128 0x4
 1683 0a5f 00       		.byte	0
ARM GAS  /var/folders/nl/q97gxh4d5b321tqt4kfb6yzh0000gn/T//ccvnnYlv.s 			page 34


 1684 0a60 03       		.uleb128 0x3
 1685 0a61 CA030000 		.4byte	.LASF135
 1686 0a65 0C       		.byte	0xc
 1687 0a66 3F       		.byte	0x3f
 1688 0a67 3B0A0000 		.4byte	0xa3b
 1689 0a6b 08       		.uleb128 0x8
 1690 0a6c 70040000 		.4byte	.LASF136
 1691 0a70 0D       		.byte	0xd
 1692 0a71 2E       		.byte	0x2e
 1693 0a72 C2000000 		.4byte	0xc2
 1694 0a76 01       		.byte	0x1
 1695 0a77 01       		.byte	0x1
 1696 0a78 08       		.uleb128 0x8
 1697 0a79 AF020000 		.4byte	.LASF137
 1698 0a7d 0D       		.byte	0xd
 1699 0a7e 2F       		.byte	0x2f
 1700 0a7f C2000000 		.4byte	0xc2
 1701 0a83 01       		.byte	0x1
 1702 0a84 01       		.byte	0x1
 1703 0a85 02       		.uleb128 0x2
 1704 0a86 01       		.byte	0x1
 1705 0a87 02       		.byte	0x2
 1706 0a88 7B040000 		.4byte	.LASF138
 1707 0a8c 06       		.uleb128 0x6
 1708 0a8d 850A0000 		.4byte	0xa85
 1709 0a91 20       		.uleb128 0x20
 1710 0a92 01       		.byte	0x1
 1711 0a93 3C000000 		.4byte	.LASF146
 1712 0a97 01       		.byte	0x1
 1713 0a98 45       		.byte	0x45
 1714 0a99 01       		.byte	0x1
 1715 0a9a 38000000 		.4byte	.LFB145
 1716 0a9e 90000000 		.4byte	.LFE145
 1717 0aa2 00000000 		.4byte	.LLST6
 1718 0aa6 01       		.byte	0x1
 1719 0aa7 8F0B0000 		.4byte	0xb8f
 1720 0aab 21       		.uleb128 0x21
 1721 0aac 696400   		.ascii	"id\000"
 1722 0aaf 01       		.byte	0x1
 1723 0ab0 45       		.byte	0x45
 1724 0ab1 C2000000 		.4byte	0xc2
 1725 0ab5 01       		.byte	0x1
 1726 0ab6 50       		.byte	0x50
 1727 0ab7 22       		.uleb128 0x22
 1728 0ab8 706300   		.ascii	"pc\000"
 1729 0abb 01       		.byte	0x1
 1730 0abc 45       		.byte	0x45
 1731 0abd C2000000 		.4byte	0xc2
 1732 0ac1 38000000 		.4byte	.LLST7
 1733 0ac5 23       		.uleb128 0x23
 1734 0ac6 F6050000 		.4byte	.LASF139
 1735 0aca 01       		.byte	0x1
 1736 0acb 45       		.byte	0x45
 1737 0acc C2000000 		.4byte	0xc2
 1738 0ad0 68000000 		.4byte	.LLST8
 1739 0ad4 0F       		.uleb128 0xf
 1740 0ad5 20       		.byte	0x20
ARM GAS  /var/folders/nl/q97gxh4d5b321tqt4kfb6yzh0000gn/T//ccvnnYlv.s 			page 35


 1741 0ad6 01       		.byte	0x1
 1742 0ad7 48       		.byte	0x48
 1743 0ad8 4C0B0000 		.4byte	0xb4c
 1744 0adc 10       		.uleb128 0x10
 1745 0add C8040000 		.4byte	.LASF140
 1746 0ae1 01       		.byte	0x1
 1747 0ae2 4A       		.byte	0x4a
 1748 0ae3 C2000000 		.4byte	0xc2
 1749 0ae7 02       		.byte	0x2
 1750 0ae8 23       		.byte	0x23
 1751 0ae9 00       		.uleb128 0
 1752 0aea 12       		.uleb128 0x12
 1753 0aeb 706300   		.ascii	"pc\000"
 1754 0aee 01       		.byte	0x1
 1755 0aef 4B       		.byte	0x4b
 1756 0af0 C2000000 		.4byte	0xc2
 1757 0af4 02       		.byte	0x2
 1758 0af5 23       		.byte	0x23
 1759 0af6 04       		.uleb128 0x4
 1760 0af7 10       		.uleb128 0x10
 1761 0af8 71060000 		.4byte	.LASF141
 1762 0afc 01       		.byte	0x1
 1763 0afd 4C       		.byte	0x4c
 1764 0afe C2000000 		.4byte	0xc2
 1765 0b02 02       		.byte	0x2
 1766 0b03 23       		.byte	0x23
 1767 0b04 08       		.uleb128 0x8
 1768 0b05 10       		.uleb128 0x10
 1769 0b06 17040000 		.4byte	.LASF142
 1770 0b0a 01       		.byte	0x1
 1771 0b0b 4D       		.byte	0x4d
 1772 0b0c 8F0B0000 		.4byte	0xb8f
 1773 0b10 02       		.byte	0x2
 1774 0b11 23       		.byte	0x23
 1775 0b12 0C       		.uleb128 0xc
 1776 0b13 10       		.uleb128 0x10
 1777 0b14 43040000 		.4byte	.LASF143
 1778 0b18 01       		.byte	0x1
 1779 0b19 4E       		.byte	0x4e
 1780 0b1a 950B0000 		.4byte	0xb95
 1781 0b1e 02       		.byte	0x2
 1782 0b1f 23       		.byte	0x23
 1783 0b20 10       		.uleb128 0x10
 1784 0b21 10       		.uleb128 0x10
 1785 0b22 B8030000 		.4byte	.LASF133
 1786 0b26 01       		.byte	0x1
 1787 0b27 4F       		.byte	0x4f
 1788 0b28 EC090000 		.4byte	0x9ec
 1789 0b2c 02       		.byte	0x2
 1790 0b2d 23       		.byte	0x23
 1791 0b2e 14       		.uleb128 0x14
 1792 0b2f 10       		.uleb128 0x10
 1793 0b30 C1030000 		.4byte	.LASF131
 1794 0b34 01       		.byte	0x1
 1795 0b35 50       		.byte	0x50
 1796 0b36 C2000000 		.4byte	0xc2
 1797 0b3a 02       		.byte	0x2
ARM GAS  /var/folders/nl/q97gxh4d5b321tqt4kfb6yzh0000gn/T//ccvnnYlv.s 			page 36


 1798 0b3b 23       		.byte	0x23
 1799 0b3c 18       		.uleb128 0x18
 1800 0b3d 10       		.uleb128 0x10
 1801 0b3e 9D020000 		.4byte	.LASF132
 1802 0b42 01       		.byte	0x1
 1803 0b43 51       		.byte	0x51
 1804 0b44 2A0A0000 		.4byte	0xa2a
 1805 0b48 02       		.byte	0x2
 1806 0b49 23       		.byte	0x23
 1807 0b4a 1C       		.uleb128 0x1c
 1808 0b4b 00       		.byte	0
 1809 0b4c 06       		.uleb128 0x6
 1810 0b4d D40A0000 		.4byte	0xad4
 1811 0b51 24       		.uleb128 0x24
 1812 0b52 D8030000 		.4byte	.LASF144
 1813 0b56 01       		.byte	0x1
 1814 0b57 52       		.byte	0x52
 1815 0b58 4C0B0000 		.4byte	0xb4c
 1816 0b5c 05       		.byte	0x5
 1817 0b5d 03       		.byte	0x3
 1818 0b5e 00000000 		.4byte	m_error_data.7552
 1819 0b62 24       		.uleb128 0x24
 1820 0b63 78020000 		.4byte	.LASF145
 1821 0b67 01       		.byte	0x1
 1822 0b68 56       		.byte	0x56
 1823 0b69 8C0A0000 		.4byte	0xa8c
 1824 0b6d 02       		.byte	0x2
 1825 0b6e 91       		.byte	0x91
 1826 0b6f 7F       		.sleb128 -1
 1827 0b70 25       		.uleb128 0x25
 1828 0b71 610C0000 		.4byte	0xc61
 1829 0b75 6A000000 		.4byte	.LBB6
 1830 0b79 6C000000 		.4byte	.LBE6
 1831 0b7d 01       		.byte	0x1
 1832 0b7e 70       		.byte	0x70
 1833 0b7f 25       		.uleb128 0x25
 1834 0b80 6A0C0000 		.4byte	0xc6a
 1835 0b84 74000000 		.4byte	.LBB8
 1836 0b88 76000000 		.4byte	.LBE8
 1837 0b8c 01       		.byte	0x1
 1838 0b8d 73       		.byte	0x73
 1839 0b8e 00       		.byte	0
 1840 0b8f 13       		.uleb128 0x13
 1841 0b90 04       		.byte	0x4
 1842 0b91 600A0000 		.4byte	0xa60
 1843 0b95 13       		.uleb128 0x13
 1844 0b96 04       		.byte	0x4
 1845 0b97 300A0000 		.4byte	0xa30
 1846 0b9b 20       		.uleb128 0x20
 1847 0b9c 01       		.byte	0x1
 1848 0b9d A5060000 		.4byte	.LASF147
 1849 0ba1 01       		.byte	0x1
 1850 0ba2 36       		.byte	0x36
 1851 0ba3 01       		.byte	0x1
 1852 0ba4 1C000000 		.4byte	.LFB144
 1853 0ba8 38000000 		.4byte	.LFE144
 1854 0bac C0000000 		.4byte	.LLST4
ARM GAS  /var/folders/nl/q97gxh4d5b321tqt4kfb6yzh0000gn/T//ccvnnYlv.s 			page 37


 1855 0bb0 01       		.byte	0x1
 1856 0bb1 EF0B0000 		.4byte	0xbef
 1857 0bb5 23       		.uleb128 0x23
 1858 0bb6 31000000 		.4byte	.LASF148
 1859 0bba 01       		.byte	0x1
 1860 0bbb 36       		.byte	0x36
 1861 0bbc EC090000 		.4byte	0x9ec
 1862 0bc0 EC000000 		.4byte	.LLST5
 1863 0bc4 24       		.uleb128 0x24
 1864 0bc5 71060000 		.4byte	.LASF141
 1865 0bc9 01       		.byte	0x1
 1866 0bca 38       		.byte	0x38
 1867 0bcb 300A0000 		.4byte	0xa30
 1868 0bcf 02       		.byte	0x2
 1869 0bd0 91       		.byte	0x91
 1870 0bd1 6C       		.sleb128 -20
 1871 0bd2 26       		.uleb128 0x26
 1872 0bd3 32000000 		.4byte	.LVL7
 1873 0bd7 730C0000 		.4byte	0xc73
 1874 0bdb 27       		.uleb128 0x27
 1875 0bdc 01       		.byte	0x1
 1876 0bdd 50       		.byte	0x50
 1877 0bde 03       		.byte	0x3
 1878 0bdf 0A       		.byte	0xa
 1879 0be0 0140     		.2byte	0x4001
 1880 0be2 27       		.uleb128 0x27
 1881 0be3 01       		.byte	0x1
 1882 0be4 51       		.byte	0x51
 1883 0be5 01       		.byte	0x1
 1884 0be6 30       		.byte	0x30
 1885 0be7 27       		.uleb128 0x27
 1886 0be8 01       		.byte	0x1
 1887 0be9 52       		.byte	0x52
 1888 0bea 02       		.byte	0x2
 1889 0beb 91       		.byte	0x91
 1890 0bec 6C       		.sleb128 -20
 1891 0bed 00       		.byte	0
 1892 0bee 00       		.byte	0
 1893 0bef 20       		.uleb128 0x20
 1894 0bf0 01       		.byte	0x1
 1895 0bf1 5D000000 		.4byte	.LASF149
 1896 0bf5 01       		.byte	0x1
 1897 0bf6 28       		.byte	0x28
 1898 0bf7 01       		.byte	0x1
 1899 0bf8 00000000 		.4byte	.LFB143
 1900 0bfc 1C000000 		.4byte	.LFE143
 1901 0c00 19010000 		.4byte	.LLST0
 1902 0c04 01       		.byte	0x1
 1903 0c05 610C0000 		.4byte	0xc61
 1904 0c09 23       		.uleb128 0x23
 1905 0c0a 31000000 		.4byte	.LASF148
 1906 0c0e 01       		.byte	0x1
 1907 0c0f 28       		.byte	0x28
 1908 0c10 EC090000 		.4byte	0x9ec
 1909 0c14 45010000 		.4byte	.LLST1
 1910 0c18 23       		.uleb128 0x23
 1911 0c19 C1030000 		.4byte	.LASF131
ARM GAS  /var/folders/nl/q97gxh4d5b321tqt4kfb6yzh0000gn/T//ccvnnYlv.s 			page 38


 1912 0c1d 01       		.byte	0x1
 1913 0c1e 28       		.byte	0x28
 1914 0c1f C2000000 		.4byte	0xc2
 1915 0c23 72010000 		.4byte	.LLST2
 1916 0c27 23       		.uleb128 0x23
 1917 0c28 9D020000 		.4byte	.LASF132
 1918 0c2c 01       		.byte	0x1
 1919 0c2d 28       		.byte	0x28
 1920 0c2e 2A0A0000 		.4byte	0xa2a
 1921 0c32 93010000 		.4byte	.LLST3
 1922 0c36 24       		.uleb128 0x24
 1923 0c37 71060000 		.4byte	.LASF141
 1924 0c3b 01       		.byte	0x1
 1925 0c3c 2A       		.byte	0x2a
 1926 0c3d 300A0000 		.4byte	0xa30
 1927 0c41 02       		.byte	0x2
 1928 0c42 91       		.byte	0x91
 1929 0c43 6C       		.sleb128 -20
 1930 0c44 26       		.uleb128 0x26
 1931 0c45 16000000 		.4byte	.LVL4
 1932 0c49 730C0000 		.4byte	0xc73
 1933 0c4d 27       		.uleb128 0x27
 1934 0c4e 01       		.byte	0x1
 1935 0c4f 50       		.byte	0x50
 1936 0c50 03       		.byte	0x3
 1937 0c51 0A       		.byte	0xa
 1938 0c52 0140     		.2byte	0x4001
 1939 0c54 27       		.uleb128 0x27
 1940 0c55 01       		.byte	0x1
 1941 0c56 51       		.byte	0x51
 1942 0c57 01       		.byte	0x1
 1943 0c58 30       		.byte	0x30
 1944 0c59 27       		.uleb128 0x27
 1945 0c5a 01       		.byte	0x1
 1946 0c5b 52       		.byte	0x52
 1947 0c5c 02       		.byte	0x2
 1948 0c5d 91       		.byte	0x91
 1949 0c5e 6C       		.sleb128 -20
 1950 0c5f 00       		.byte	0
 1951 0c60 00       		.byte	0
 1952 0c61 28       		.uleb128 0x28
 1953 0c62 50040000 		.4byte	.LASF150
 1954 0c66 02       		.byte	0x2
 1955 0c67 45       		.byte	0x45
 1956 0c68 01       		.byte	0x1
 1957 0c69 03       		.byte	0x3
 1958 0c6a 28       		.uleb128 0x28
 1959 0c6b 25040000 		.4byte	.LASF151
 1960 0c6f 02       		.byte	0x2
 1961 0c70 3A       		.byte	0x3a
 1962 0c71 01       		.byte	0x1
 1963 0c72 03       		.byte	0x3
 1964 0c73 29       		.uleb128 0x29
 1965 0c74 01       		.byte	0x1
 1966 0c75 01       		.byte	0x1
 1967 0c76 10060000 		.4byte	.LASF156
 1968 0c7a 10060000 		.4byte	.LASF156
ARM GAS  /var/folders/nl/q97gxh4d5b321tqt4kfb6yzh0000gn/T//ccvnnYlv.s 			page 39


 1969 0c7e 0E       		.byte	0xe
 1970 0c7f 30       		.byte	0x30
 1971 0c80 00       		.byte	0
 1972              		.section	.debug_abbrev,"",%progbits
 1973              	.Ldebug_abbrev0:
 1974 0000 01       		.uleb128 0x1
 1975 0001 11       		.uleb128 0x11
 1976 0002 01       		.byte	0x1
 1977 0003 25       		.uleb128 0x25
 1978 0004 0E       		.uleb128 0xe
 1979 0005 13       		.uleb128 0x13
 1980 0006 0B       		.uleb128 0xb
 1981 0007 03       		.uleb128 0x3
 1982 0008 0E       		.uleb128 0xe
 1983 0009 1B       		.uleb128 0x1b
 1984 000a 0E       		.uleb128 0xe
 1985 000b 11       		.uleb128 0x11
 1986 000c 01       		.uleb128 0x1
 1987 000d 12       		.uleb128 0x12
 1988 000e 01       		.uleb128 0x1
 1989 000f 10       		.uleb128 0x10
 1990 0010 06       		.uleb128 0x6
 1991 0011 00       		.byte	0
 1992 0012 00       		.byte	0
 1993 0013 02       		.uleb128 0x2
 1994 0014 24       		.uleb128 0x24
 1995 0015 00       		.byte	0
 1996 0016 0B       		.uleb128 0xb
 1997 0017 0B       		.uleb128 0xb
 1998 0018 3E       		.uleb128 0x3e
 1999 0019 0B       		.uleb128 0xb
 2000 001a 03       		.uleb128 0x3
 2001 001b 0E       		.uleb128 0xe
 2002 001c 00       		.byte	0
 2003 001d 00       		.byte	0
 2004 001e 03       		.uleb128 0x3
 2005 001f 16       		.uleb128 0x16
 2006 0020 00       		.byte	0
 2007 0021 03       		.uleb128 0x3
 2008 0022 0E       		.uleb128 0xe
 2009 0023 3A       		.uleb128 0x3a
 2010 0024 0B       		.uleb128 0xb
 2011 0025 3B       		.uleb128 0x3b
 2012 0026 0B       		.uleb128 0xb
 2013 0027 49       		.uleb128 0x49
 2014 0028 13       		.uleb128 0x13
 2015 0029 00       		.byte	0
 2016 002a 00       		.byte	0
 2017 002b 04       		.uleb128 0x4
 2018 002c 24       		.uleb128 0x24
 2019 002d 00       		.byte	0
 2020 002e 0B       		.uleb128 0xb
 2021 002f 0B       		.uleb128 0xb
 2022 0030 3E       		.uleb128 0x3e
 2023 0031 0B       		.uleb128 0xb
 2024 0032 03       		.uleb128 0x3
 2025 0033 08       		.uleb128 0x8
ARM GAS  /var/folders/nl/q97gxh4d5b321tqt4kfb6yzh0000gn/T//ccvnnYlv.s 			page 40


 2026 0034 00       		.byte	0
 2027 0035 00       		.byte	0
 2028 0036 05       		.uleb128 0x5
 2029 0037 26       		.uleb128 0x26
 2030 0038 00       		.byte	0
 2031 0039 49       		.uleb128 0x49
 2032 003a 13       		.uleb128 0x13
 2033 003b 00       		.byte	0
 2034 003c 00       		.byte	0
 2035 003d 06       		.uleb128 0x6
 2036 003e 35       		.uleb128 0x35
 2037 003f 00       		.byte	0
 2038 0040 49       		.uleb128 0x49
 2039 0041 13       		.uleb128 0x13
 2040 0042 00       		.byte	0
 2041 0043 00       		.byte	0
 2042 0044 07       		.uleb128 0x7
 2043 0045 34       		.uleb128 0x34
 2044 0046 00       		.byte	0
 2045 0047 03       		.uleb128 0x3
 2046 0048 0E       		.uleb128 0xe
 2047 0049 3A       		.uleb128 0x3a
 2048 004a 0B       		.uleb128 0xb
 2049 004b 3B       		.uleb128 0x3b
 2050 004c 05       		.uleb128 0x5
 2051 004d 49       		.uleb128 0x49
 2052 004e 13       		.uleb128 0x13
 2053 004f 3F       		.uleb128 0x3f
 2054 0050 0C       		.uleb128 0xc
 2055 0051 3C       		.uleb128 0x3c
 2056 0052 0C       		.uleb128 0xc
 2057 0053 00       		.byte	0
 2058 0054 00       		.byte	0
 2059 0055 08       		.uleb128 0x8
 2060 0056 34       		.uleb128 0x34
 2061 0057 00       		.byte	0
 2062 0058 03       		.uleb128 0x3
 2063 0059 0E       		.uleb128 0xe
 2064 005a 3A       		.uleb128 0x3a
 2065 005b 0B       		.uleb128 0xb
 2066 005c 3B       		.uleb128 0x3b
 2067 005d 0B       		.uleb128 0xb
 2068 005e 49       		.uleb128 0x49
 2069 005f 13       		.uleb128 0x13
 2070 0060 3F       		.uleb128 0x3f
 2071 0061 0C       		.uleb128 0xc
 2072 0062 3C       		.uleb128 0x3c
 2073 0063 0C       		.uleb128 0xc
 2074 0064 00       		.byte	0
 2075 0065 00       		.byte	0
 2076 0066 09       		.uleb128 0x9
 2077 0067 0F       		.uleb128 0xf
 2078 0068 00       		.byte	0
 2079 0069 0B       		.uleb128 0xb
 2080 006a 0B       		.uleb128 0xb
 2081 006b 00       		.byte	0
 2082 006c 00       		.byte	0
ARM GAS  /var/folders/nl/q97gxh4d5b321tqt4kfb6yzh0000gn/T//ccvnnYlv.s 			page 41


 2083 006d 0A       		.uleb128 0xa
 2084 006e 16       		.uleb128 0x16
 2085 006f 00       		.byte	0
 2086 0070 03       		.uleb128 0x3
 2087 0071 0E       		.uleb128 0xe
 2088 0072 3A       		.uleb128 0x3a
 2089 0073 0B       		.uleb128 0xb
 2090 0074 3B       		.uleb128 0x3b
 2091 0075 05       		.uleb128 0x5
 2092 0076 49       		.uleb128 0x49
 2093 0077 13       		.uleb128 0x13
 2094 0078 00       		.byte	0
 2095 0079 00       		.byte	0
 2096 007a 0B       		.uleb128 0xb
 2097 007b 17       		.uleb128 0x17
 2098 007c 01       		.byte	0x1
 2099 007d 0B       		.uleb128 0xb
 2100 007e 0B       		.uleb128 0xb
 2101 007f 3A       		.uleb128 0x3a
 2102 0080 0B       		.uleb128 0xb
 2103 0081 3B       		.uleb128 0x3b
 2104 0082 0B       		.uleb128 0xb
 2105 0083 01       		.uleb128 0x1
 2106 0084 13       		.uleb128 0x13
 2107 0085 00       		.byte	0
 2108 0086 00       		.byte	0
 2109 0087 0C       		.uleb128 0xc
 2110 0088 0D       		.uleb128 0xd
 2111 0089 00       		.byte	0
 2112 008a 03       		.uleb128 0x3
 2113 008b 0E       		.uleb128 0xe
 2114 008c 3A       		.uleb128 0x3a
 2115 008d 0B       		.uleb128 0xb
 2116 008e 3B       		.uleb128 0x3b
 2117 008f 0B       		.uleb128 0xb
 2118 0090 49       		.uleb128 0x49
 2119 0091 13       		.uleb128 0x13
 2120 0092 00       		.byte	0
 2121 0093 00       		.byte	0
 2122 0094 0D       		.uleb128 0xd
 2123 0095 01       		.uleb128 0x1
 2124 0096 01       		.byte	0x1
 2125 0097 49       		.uleb128 0x49
 2126 0098 13       		.uleb128 0x13
 2127 0099 01       		.uleb128 0x1
 2128 009a 13       		.uleb128 0x13
 2129 009b 00       		.byte	0
 2130 009c 00       		.byte	0
 2131 009d 0E       		.uleb128 0xe
 2132 009e 21       		.uleb128 0x21
 2133 009f 00       		.byte	0
 2134 00a0 49       		.uleb128 0x49
 2135 00a1 13       		.uleb128 0x13
 2136 00a2 2F       		.uleb128 0x2f
 2137 00a3 0B       		.uleb128 0xb
 2138 00a4 00       		.byte	0
 2139 00a5 00       		.byte	0
ARM GAS  /var/folders/nl/q97gxh4d5b321tqt4kfb6yzh0000gn/T//ccvnnYlv.s 			page 42


 2140 00a6 0F       		.uleb128 0xf
 2141 00a7 13       		.uleb128 0x13
 2142 00a8 01       		.byte	0x1
 2143 00a9 0B       		.uleb128 0xb
 2144 00aa 0B       		.uleb128 0xb
 2145 00ab 3A       		.uleb128 0x3a
 2146 00ac 0B       		.uleb128 0xb
 2147 00ad 3B       		.uleb128 0x3b
 2148 00ae 0B       		.uleb128 0xb
 2149 00af 01       		.uleb128 0x1
 2150 00b0 13       		.uleb128 0x13
 2151 00b1 00       		.byte	0
 2152 00b2 00       		.byte	0
 2153 00b3 10       		.uleb128 0x10
 2154 00b4 0D       		.uleb128 0xd
 2155 00b5 00       		.byte	0
 2156 00b6 03       		.uleb128 0x3
 2157 00b7 0E       		.uleb128 0xe
 2158 00b8 3A       		.uleb128 0x3a
 2159 00b9 0B       		.uleb128 0xb
 2160 00ba 3B       		.uleb128 0x3b
 2161 00bb 0B       		.uleb128 0xb
 2162 00bc 49       		.uleb128 0x49
 2163 00bd 13       		.uleb128 0x13
 2164 00be 38       		.uleb128 0x38
 2165 00bf 0A       		.uleb128 0xa
 2166 00c0 00       		.byte	0
 2167 00c1 00       		.byte	0
 2168 00c2 11       		.uleb128 0x11
 2169 00c3 13       		.uleb128 0x13
 2170 00c4 01       		.byte	0x1
 2171 00c5 03       		.uleb128 0x3
 2172 00c6 0E       		.uleb128 0xe
 2173 00c7 0B       		.uleb128 0xb
 2174 00c8 0B       		.uleb128 0xb
 2175 00c9 3A       		.uleb128 0x3a
 2176 00ca 0B       		.uleb128 0xb
 2177 00cb 3B       		.uleb128 0x3b
 2178 00cc 0B       		.uleb128 0xb
 2179 00cd 01       		.uleb128 0x1
 2180 00ce 13       		.uleb128 0x13
 2181 00cf 00       		.byte	0
 2182 00d0 00       		.byte	0
 2183 00d1 12       		.uleb128 0x12
 2184 00d2 0D       		.uleb128 0xd
 2185 00d3 00       		.byte	0
 2186 00d4 03       		.uleb128 0x3
 2187 00d5 08       		.uleb128 0x8
 2188 00d6 3A       		.uleb128 0x3a
 2189 00d7 0B       		.uleb128 0xb
 2190 00d8 3B       		.uleb128 0x3b
 2191 00d9 0B       		.uleb128 0xb
 2192 00da 49       		.uleb128 0x49
 2193 00db 13       		.uleb128 0x13
 2194 00dc 38       		.uleb128 0x38
 2195 00dd 0A       		.uleb128 0xa
 2196 00de 00       		.byte	0
ARM GAS  /var/folders/nl/q97gxh4d5b321tqt4kfb6yzh0000gn/T//ccvnnYlv.s 			page 43


 2197 00df 00       		.byte	0
 2198 00e0 13       		.uleb128 0x13
 2199 00e1 0F       		.uleb128 0xf
 2200 00e2 00       		.byte	0
 2201 00e3 0B       		.uleb128 0xb
 2202 00e4 0B       		.uleb128 0xb
 2203 00e5 49       		.uleb128 0x49
 2204 00e6 13       		.uleb128 0x13
 2205 00e7 00       		.byte	0
 2206 00e8 00       		.byte	0
 2207 00e9 14       		.uleb128 0x14
 2208 00ea 13       		.uleb128 0x13
 2209 00eb 01       		.byte	0x1
 2210 00ec 03       		.uleb128 0x3
 2211 00ed 0E       		.uleb128 0xe
 2212 00ee 0B       		.uleb128 0xb
 2213 00ef 05       		.uleb128 0x5
 2214 00f0 3A       		.uleb128 0x3a
 2215 00f1 0B       		.uleb128 0xb
 2216 00f2 3B       		.uleb128 0x3b
 2217 00f3 0B       		.uleb128 0xb
 2218 00f4 01       		.uleb128 0x1
 2219 00f5 13       		.uleb128 0x13
 2220 00f6 00       		.byte	0
 2221 00f7 00       		.byte	0
 2222 00f8 15       		.uleb128 0x15
 2223 00f9 15       		.uleb128 0x15
 2224 00fa 00       		.byte	0
 2225 00fb 27       		.uleb128 0x27
 2226 00fc 0C       		.uleb128 0xc
 2227 00fd 00       		.byte	0
 2228 00fe 00       		.byte	0
 2229 00ff 16       		.uleb128 0x16
 2230 0100 15       		.uleb128 0x15
 2231 0101 01       		.byte	0x1
 2232 0102 27       		.uleb128 0x27
 2233 0103 0C       		.uleb128 0xc
 2234 0104 49       		.uleb128 0x49
 2235 0105 13       		.uleb128 0x13
 2236 0106 01       		.uleb128 0x1
 2237 0107 13       		.uleb128 0x13
 2238 0108 00       		.byte	0
 2239 0109 00       		.byte	0
 2240 010a 17       		.uleb128 0x17
 2241 010b 05       		.uleb128 0x5
 2242 010c 00       		.byte	0
 2243 010d 49       		.uleb128 0x49
 2244 010e 13       		.uleb128 0x13
 2245 010f 00       		.byte	0
 2246 0110 00       		.byte	0
 2247 0111 18       		.uleb128 0x18
 2248 0112 13       		.uleb128 0x13
 2249 0113 01       		.byte	0x1
 2250 0114 03       		.uleb128 0x3
 2251 0115 0E       		.uleb128 0xe
 2252 0116 0B       		.uleb128 0xb
 2253 0117 05       		.uleb128 0x5
ARM GAS  /var/folders/nl/q97gxh4d5b321tqt4kfb6yzh0000gn/T//ccvnnYlv.s 			page 44


 2254 0118 3A       		.uleb128 0x3a
 2255 0119 0B       		.uleb128 0xb
 2256 011a 3B       		.uleb128 0x3b
 2257 011b 05       		.uleb128 0x5
 2258 011c 01       		.uleb128 0x1
 2259 011d 13       		.uleb128 0x13
 2260 011e 00       		.byte	0
 2261 011f 00       		.byte	0
 2262 0120 19       		.uleb128 0x19
 2263 0121 0D       		.uleb128 0xd
 2264 0122 00       		.byte	0
 2265 0123 03       		.uleb128 0x3
 2266 0124 0E       		.uleb128 0xe
 2267 0125 3A       		.uleb128 0x3a
 2268 0126 0B       		.uleb128 0xb
 2269 0127 3B       		.uleb128 0x3b
 2270 0128 05       		.uleb128 0x5
 2271 0129 49       		.uleb128 0x49
 2272 012a 13       		.uleb128 0x13
 2273 012b 38       		.uleb128 0x38
 2274 012c 0A       		.uleb128 0xa
 2275 012d 00       		.byte	0
 2276 012e 00       		.byte	0
 2277 012f 1A       		.uleb128 0x1a
 2278 0130 13       		.uleb128 0x13
 2279 0131 01       		.byte	0x1
 2280 0132 03       		.uleb128 0x3
 2281 0133 0E       		.uleb128 0xe
 2282 0134 0B       		.uleb128 0xb
 2283 0135 0B       		.uleb128 0xb
 2284 0136 3A       		.uleb128 0x3a
 2285 0137 0B       		.uleb128 0xb
 2286 0138 3B       		.uleb128 0x3b
 2287 0139 05       		.uleb128 0x5
 2288 013a 01       		.uleb128 0x1
 2289 013b 13       		.uleb128 0x13
 2290 013c 00       		.byte	0
 2291 013d 00       		.byte	0
 2292 013e 1B       		.uleb128 0x1b
 2293 013f 13       		.uleb128 0x13
 2294 0140 01       		.byte	0x1
 2295 0141 0B       		.uleb128 0xb
 2296 0142 0B       		.uleb128 0xb
 2297 0143 3A       		.uleb128 0x3a
 2298 0144 0B       		.uleb128 0xb
 2299 0145 3B       		.uleb128 0x3b
 2300 0146 05       		.uleb128 0x5
 2301 0147 01       		.uleb128 0x1
 2302 0148 13       		.uleb128 0x13
 2303 0149 00       		.byte	0
 2304 014a 00       		.byte	0
 2305 014b 1C       		.uleb128 0x1c
 2306 014c 17       		.uleb128 0x17
 2307 014d 01       		.byte	0x1
 2308 014e 0B       		.uleb128 0xb
 2309 014f 0B       		.uleb128 0xb
 2310 0150 3A       		.uleb128 0x3a
ARM GAS  /var/folders/nl/q97gxh4d5b321tqt4kfb6yzh0000gn/T//ccvnnYlv.s 			page 45


 2311 0151 0B       		.uleb128 0xb
 2312 0152 3B       		.uleb128 0x3b
 2313 0153 05       		.uleb128 0x5
 2314 0154 01       		.uleb128 0x1
 2315 0155 13       		.uleb128 0x13
 2316 0156 00       		.byte	0
 2317 0157 00       		.byte	0
 2318 0158 1D       		.uleb128 0x1d
 2319 0159 0D       		.uleb128 0xd
 2320 015a 00       		.byte	0
 2321 015b 03       		.uleb128 0x3
 2322 015c 0E       		.uleb128 0xe
 2323 015d 3A       		.uleb128 0x3a
 2324 015e 0B       		.uleb128 0xb
 2325 015f 3B       		.uleb128 0x3b
 2326 0160 05       		.uleb128 0x5
 2327 0161 49       		.uleb128 0x49
 2328 0162 13       		.uleb128 0x13
 2329 0163 00       		.byte	0
 2330 0164 00       		.byte	0
 2331 0165 1E       		.uleb128 0x1e
 2332 0166 13       		.uleb128 0x13
 2333 0167 00       		.byte	0
 2334 0168 03       		.uleb128 0x3
 2335 0169 0E       		.uleb128 0xe
 2336 016a 3C       		.uleb128 0x3c
 2337 016b 0C       		.uleb128 0xc
 2338 016c 00       		.byte	0
 2339 016d 00       		.byte	0
 2340 016e 1F       		.uleb128 0x1f
 2341 016f 15       		.uleb128 0x15
 2342 0170 01       		.byte	0x1
 2343 0171 27       		.uleb128 0x27
 2344 0172 0C       		.uleb128 0xc
 2345 0173 01       		.uleb128 0x1
 2346 0174 13       		.uleb128 0x13
 2347 0175 00       		.byte	0
 2348 0176 00       		.byte	0
 2349 0177 20       		.uleb128 0x20
 2350 0178 2E       		.uleb128 0x2e
 2351 0179 01       		.byte	0x1
 2352 017a 3F       		.uleb128 0x3f
 2353 017b 0C       		.uleb128 0xc
 2354 017c 03       		.uleb128 0x3
 2355 017d 0E       		.uleb128 0xe
 2356 017e 3A       		.uleb128 0x3a
 2357 017f 0B       		.uleb128 0xb
 2358 0180 3B       		.uleb128 0x3b
 2359 0181 0B       		.uleb128 0xb
 2360 0182 27       		.uleb128 0x27
 2361 0183 0C       		.uleb128 0xc
 2362 0184 11       		.uleb128 0x11
 2363 0185 01       		.uleb128 0x1
 2364 0186 12       		.uleb128 0x12
 2365 0187 01       		.uleb128 0x1
 2366 0188 40       		.uleb128 0x40
 2367 0189 06       		.uleb128 0x6
ARM GAS  /var/folders/nl/q97gxh4d5b321tqt4kfb6yzh0000gn/T//ccvnnYlv.s 			page 46


 2368 018a 9742     		.uleb128 0x2117
 2369 018c 0C       		.uleb128 0xc
 2370 018d 01       		.uleb128 0x1
 2371 018e 13       		.uleb128 0x13
 2372 018f 00       		.byte	0
 2373 0190 00       		.byte	0
 2374 0191 21       		.uleb128 0x21
 2375 0192 05       		.uleb128 0x5
 2376 0193 00       		.byte	0
 2377 0194 03       		.uleb128 0x3
 2378 0195 08       		.uleb128 0x8
 2379 0196 3A       		.uleb128 0x3a
 2380 0197 0B       		.uleb128 0xb
 2381 0198 3B       		.uleb128 0x3b
 2382 0199 0B       		.uleb128 0xb
 2383 019a 49       		.uleb128 0x49
 2384 019b 13       		.uleb128 0x13
 2385 019c 02       		.uleb128 0x2
 2386 019d 0A       		.uleb128 0xa
 2387 019e 00       		.byte	0
 2388 019f 00       		.byte	0
 2389 01a0 22       		.uleb128 0x22
 2390 01a1 05       		.uleb128 0x5
 2391 01a2 00       		.byte	0
 2392 01a3 03       		.uleb128 0x3
 2393 01a4 08       		.uleb128 0x8
 2394 01a5 3A       		.uleb128 0x3a
 2395 01a6 0B       		.uleb128 0xb
 2396 01a7 3B       		.uleb128 0x3b
 2397 01a8 0B       		.uleb128 0xb
 2398 01a9 49       		.uleb128 0x49
 2399 01aa 13       		.uleb128 0x13
 2400 01ab 02       		.uleb128 0x2
 2401 01ac 06       		.uleb128 0x6
 2402 01ad 00       		.byte	0
 2403 01ae 00       		.byte	0
 2404 01af 23       		.uleb128 0x23
 2405 01b0 05       		.uleb128 0x5
 2406 01b1 00       		.byte	0
 2407 01b2 03       		.uleb128 0x3
 2408 01b3 0E       		.uleb128 0xe
 2409 01b4 3A       		.uleb128 0x3a
 2410 01b5 0B       		.uleb128 0xb
 2411 01b6 3B       		.uleb128 0x3b
 2412 01b7 0B       		.uleb128 0xb
 2413 01b8 49       		.uleb128 0x49
 2414 01b9 13       		.uleb128 0x13
 2415 01ba 02       		.uleb128 0x2
 2416 01bb 06       		.uleb128 0x6
 2417 01bc 00       		.byte	0
 2418 01bd 00       		.byte	0
 2419 01be 24       		.uleb128 0x24
 2420 01bf 34       		.uleb128 0x34
 2421 01c0 00       		.byte	0
 2422 01c1 03       		.uleb128 0x3
 2423 01c2 0E       		.uleb128 0xe
 2424 01c3 3A       		.uleb128 0x3a
ARM GAS  /var/folders/nl/q97gxh4d5b321tqt4kfb6yzh0000gn/T//ccvnnYlv.s 			page 47


 2425 01c4 0B       		.uleb128 0xb
 2426 01c5 3B       		.uleb128 0x3b
 2427 01c6 0B       		.uleb128 0xb
 2428 01c7 49       		.uleb128 0x49
 2429 01c8 13       		.uleb128 0x13
 2430 01c9 02       		.uleb128 0x2
 2431 01ca 0A       		.uleb128 0xa
 2432 01cb 00       		.byte	0
 2433 01cc 00       		.byte	0
 2434 01cd 25       		.uleb128 0x25
 2435 01ce 1D       		.uleb128 0x1d
 2436 01cf 00       		.byte	0
 2437 01d0 31       		.uleb128 0x31
 2438 01d1 13       		.uleb128 0x13
 2439 01d2 11       		.uleb128 0x11
 2440 01d3 01       		.uleb128 0x1
 2441 01d4 12       		.uleb128 0x12
 2442 01d5 01       		.uleb128 0x1
 2443 01d6 58       		.uleb128 0x58
 2444 01d7 0B       		.uleb128 0xb
 2445 01d8 59       		.uleb128 0x59
 2446 01d9 0B       		.uleb128 0xb
 2447 01da 00       		.byte	0
 2448 01db 00       		.byte	0
 2449 01dc 26       		.uleb128 0x26
 2450 01dd 898201   		.uleb128 0x4109
 2451 01e0 01       		.byte	0x1
 2452 01e1 11       		.uleb128 0x11
 2453 01e2 01       		.uleb128 0x1
 2454 01e3 31       		.uleb128 0x31
 2455 01e4 13       		.uleb128 0x13
 2456 01e5 00       		.byte	0
 2457 01e6 00       		.byte	0
 2458 01e7 27       		.uleb128 0x27
 2459 01e8 8A8201   		.uleb128 0x410a
 2460 01eb 00       		.byte	0
 2461 01ec 02       		.uleb128 0x2
 2462 01ed 0A       		.uleb128 0xa
 2463 01ee 9142     		.uleb128 0x2111
 2464 01f0 0A       		.uleb128 0xa
 2465 01f1 00       		.byte	0
 2466 01f2 00       		.byte	0
 2467 01f3 28       		.uleb128 0x28
 2468 01f4 2E       		.uleb128 0x2e
 2469 01f5 00       		.byte	0
 2470 01f6 03       		.uleb128 0x3
 2471 01f7 0E       		.uleb128 0xe
 2472 01f8 3A       		.uleb128 0x3a
 2473 01f9 0B       		.uleb128 0xb
 2474 01fa 3B       		.uleb128 0x3b
 2475 01fb 0B       		.uleb128 0xb
 2476 01fc 27       		.uleb128 0x27
 2477 01fd 0C       		.uleb128 0xc
 2478 01fe 20       		.uleb128 0x20
 2479 01ff 0B       		.uleb128 0xb
 2480 0200 00       		.byte	0
 2481 0201 00       		.byte	0
ARM GAS  /var/folders/nl/q97gxh4d5b321tqt4kfb6yzh0000gn/T//ccvnnYlv.s 			page 48


 2482 0202 29       		.uleb128 0x29
 2483 0203 2E       		.uleb128 0x2e
 2484 0204 00       		.byte	0
 2485 0205 3F       		.uleb128 0x3f
 2486 0206 0C       		.uleb128 0xc
 2487 0207 3C       		.uleb128 0x3c
 2488 0208 0C       		.uleb128 0xc
 2489 0209 8740     		.uleb128 0x2007
 2490 020b 0E       		.uleb128 0xe
 2491 020c 03       		.uleb128 0x3
 2492 020d 0E       		.uleb128 0xe
 2493 020e 3A       		.uleb128 0x3a
 2494 020f 0B       		.uleb128 0xb
 2495 0210 3B       		.uleb128 0x3b
 2496 0211 0B       		.uleb128 0xb
 2497 0212 00       		.byte	0
 2498 0213 00       		.byte	0
 2499 0214 00       		.byte	0
 2500              		.section	.debug_loc,"",%progbits
 2501              	.Ldebug_loc0:
 2502              	.LLST6:
 2503 0000 38000000 		.4byte	.LFB145-.Ltext0
 2504 0004 3A000000 		.4byte	.LCFI4-.Ltext0
 2505 0008 0200     		.2byte	0x2
 2506 000a 7D       		.byte	0x7d
 2507 000b 00       		.sleb128 0
 2508 000c 3A000000 		.4byte	.LCFI4-.Ltext0
 2509 0010 78000000 		.4byte	.LCFI5-.Ltext0
 2510 0014 0200     		.2byte	0x2
 2511 0016 7D       		.byte	0x7d
 2512 0017 08       		.sleb128 8
 2513 0018 78000000 		.4byte	.LCFI5-.Ltext0
 2514 001c 7A000000 		.4byte	.LCFI6-.Ltext0
 2515 0020 0200     		.2byte	0x2
 2516 0022 7D       		.byte	0x7d
 2517 0023 00       		.sleb128 0
 2518 0024 7A000000 		.4byte	.LCFI6-.Ltext0
 2519 0028 90000000 		.4byte	.LFE145-.Ltext0
 2520 002c 0200     		.2byte	0x2
 2521 002e 7D       		.byte	0x7d
 2522 002f 08       		.sleb128 8
 2523 0030 00000000 		.4byte	0
 2524 0034 00000000 		.4byte	0
 2525              	.LLST7:
 2526 0038 38000000 		.4byte	.LVL8-.Ltext0
 2527 003c 4E000000 		.4byte	.LVL9-.Ltext0
 2528 0040 0100     		.2byte	0x1
 2529 0042 51       		.byte	0x51
 2530 0043 4E000000 		.4byte	.LVL9-.Ltext0
 2531 0047 52000000 		.4byte	.LVL10-.Ltext0
 2532 004b 0500     		.2byte	0x5
 2533 004d 03       		.byte	0x3
 2534 004e 04000000 		.4byte	m_error_data.7552+4
 2535 0052 52000000 		.4byte	.LVL10-.Ltext0
 2536 0056 90000000 		.4byte	.LFE145-.Ltext0
 2537 005a 0400     		.2byte	0x4
 2538 005c F3       		.byte	0xf3
ARM GAS  /var/folders/nl/q97gxh4d5b321tqt4kfb6yzh0000gn/T//ccvnnYlv.s 			page 49


 2539 005d 01       		.uleb128 0x1
 2540 005e 51       		.byte	0x51
 2541 005f 9F       		.byte	0x9f
 2542 0060 00000000 		.4byte	0
 2543 0064 00000000 		.4byte	0
 2544              	.LLST8:
 2545 0068 38000000 		.4byte	.LVL8-.Ltext0
 2546 006c 60000000 		.4byte	.LVL11-.Ltext0
 2547 0070 0100     		.2byte	0x1
 2548 0072 52       		.byte	0x52
 2549 0073 60000000 		.4byte	.LVL11-.Ltext0
 2550 0077 64000000 		.4byte	.LVL12-.Ltext0
 2551 007b 0500     		.2byte	0x5
 2552 007d 03       		.byte	0x3
 2553 007e 0C000000 		.4byte	m_error_data.7552+12
 2554 0082 64000000 		.4byte	.LVL12-.Ltext0
 2555 0086 7A000000 		.4byte	.LVL13-.Ltext0
 2556 008a 0400     		.2byte	0x4
 2557 008c F3       		.byte	0xf3
 2558 008d 01       		.uleb128 0x1
 2559 008e 52       		.byte	0x52
 2560 008f 9F       		.byte	0x9f
 2561 0090 7A000000 		.4byte	.LVL13-.Ltext0
 2562 0094 7E000000 		.4byte	.LVL14-.Ltext0
 2563 0098 0100     		.2byte	0x1
 2564 009a 52       		.byte	0x52
 2565 009b 7E000000 		.4byte	.LVL14-.Ltext0
 2566 009f 82000000 		.4byte	.LVL15-.Ltext0
 2567 00a3 0500     		.2byte	0x5
 2568 00a5 03       		.byte	0x3
 2569 00a6 10000000 		.4byte	m_error_data.7552+16
 2570 00aa 82000000 		.4byte	.LVL15-.Ltext0
 2571 00ae 90000000 		.4byte	.LFE145-.Ltext0
 2572 00b2 0400     		.2byte	0x4
 2573 00b4 F3       		.byte	0xf3
 2574 00b5 01       		.uleb128 0x1
 2575 00b6 52       		.byte	0x52
 2576 00b7 9F       		.byte	0x9f
 2577 00b8 00000000 		.4byte	0
 2578 00bc 00000000 		.4byte	0
 2579              	.LLST4:
 2580 00c0 1C000000 		.4byte	.LFB144-.Ltext0
 2581 00c4 1E000000 		.4byte	.LCFI2-.Ltext0
 2582 00c8 0200     		.2byte	0x2
 2583 00ca 7D       		.byte	0x7d
 2584 00cb 00       		.sleb128 0
 2585 00cc 1E000000 		.4byte	.LCFI2-.Ltext0
 2586 00d0 34000000 		.4byte	.LCFI3-.Ltext0
 2587 00d4 0200     		.2byte	0x2
 2588 00d6 7D       		.byte	0x7d
 2589 00d7 18       		.sleb128 24
 2590 00d8 34000000 		.4byte	.LCFI3-.Ltext0
 2591 00dc 38000000 		.4byte	.LFE144-.Ltext0
 2592 00e0 0200     		.2byte	0x2
 2593 00e2 7D       		.byte	0x7d
 2594 00e3 04       		.sleb128 4
 2595 00e4 00000000 		.4byte	0
ARM GAS  /var/folders/nl/q97gxh4d5b321tqt4kfb6yzh0000gn/T//ccvnnYlv.s 			page 50


 2596 00e8 00000000 		.4byte	0
 2597              	.LLST5:
 2598 00ec 1C000000 		.4byte	.LVL5-.Ltext0
 2599 00f0 28000000 		.4byte	.LVL6-.Ltext0
 2600 00f4 0100     		.2byte	0x1
 2601 00f6 50       		.byte	0x50
 2602 00f7 28000000 		.4byte	.LVL6-.Ltext0
 2603 00fb 31000000 		.4byte	.LVL7-1-.Ltext0
 2604 00ff 0200     		.2byte	0x2
 2605 0101 91       		.byte	0x91
 2606 0102 74       		.sleb128 -12
 2607 0103 31000000 		.4byte	.LVL7-1-.Ltext0
 2608 0107 38000000 		.4byte	.LFE144-.Ltext0
 2609 010b 0400     		.2byte	0x4
 2610 010d F3       		.byte	0xf3
 2611 010e 01       		.uleb128 0x1
 2612 010f 50       		.byte	0x50
 2613 0110 9F       		.byte	0x9f
 2614 0111 00000000 		.4byte	0
 2615 0115 00000000 		.4byte	0
 2616              	.LLST0:
 2617 0119 00000000 		.4byte	.LFB143-.Ltext0
 2618 011d 02000000 		.4byte	.LCFI0-.Ltext0
 2619 0121 0200     		.2byte	0x2
 2620 0123 7D       		.byte	0x7d
 2621 0124 00       		.sleb128 0
 2622 0125 02000000 		.4byte	.LCFI0-.Ltext0
 2623 0129 18000000 		.4byte	.LCFI1-.Ltext0
 2624 012d 0200     		.2byte	0x2
 2625 012f 7D       		.byte	0x7d
 2626 0130 18       		.sleb128 24
 2627 0131 18000000 		.4byte	.LCFI1-.Ltext0
 2628 0135 1C000000 		.4byte	.LFE143-.Ltext0
 2629 0139 0200     		.2byte	0x2
 2630 013b 7D       		.byte	0x7d
 2631 013c 04       		.sleb128 4
 2632 013d 00000000 		.4byte	0
 2633 0141 00000000 		.4byte	0
 2634              	.LLST1:
 2635 0145 00000000 		.4byte	.LVL0-.Ltext0
 2636 0149 12000000 		.4byte	.LVL3-.Ltext0
 2637 014d 0100     		.2byte	0x1
 2638 014f 50       		.byte	0x50
 2639 0150 12000000 		.4byte	.LVL3-.Ltext0
 2640 0154 15000000 		.4byte	.LVL4-1-.Ltext0
 2641 0158 0200     		.2byte	0x2
 2642 015a 91       		.byte	0x91
 2643 015b 74       		.sleb128 -12
 2644 015c 15000000 		.4byte	.LVL4-1-.Ltext0
 2645 0160 1C000000 		.4byte	.LFE143-.Ltext0
 2646 0164 0400     		.2byte	0x4
 2647 0166 F3       		.byte	0xf3
 2648 0167 01       		.uleb128 0x1
 2649 0168 50       		.byte	0x50
 2650 0169 9F       		.byte	0x9f
 2651 016a 00000000 		.4byte	0
 2652 016e 00000000 		.4byte	0
ARM GAS  /var/folders/nl/q97gxh4d5b321tqt4kfb6yzh0000gn/T//ccvnnYlv.s 			page 51


 2653              	.LLST2:
 2654 0172 00000000 		.4byte	.LVL0-.Ltext0
 2655 0176 0E000000 		.4byte	.LVL2-.Ltext0
 2656 017a 0100     		.2byte	0x1
 2657 017c 51       		.byte	0x51
 2658 017d 0E000000 		.4byte	.LVL2-.Ltext0
 2659 0181 1C000000 		.4byte	.LFE143-.Ltext0
 2660 0185 0400     		.2byte	0x4
 2661 0187 F3       		.byte	0xf3
 2662 0188 01       		.uleb128 0x1
 2663 0189 51       		.byte	0x51
 2664 018a 9F       		.byte	0x9f
 2665 018b 00000000 		.4byte	0
 2666 018f 00000000 		.4byte	0
 2667              	.LLST3:
 2668 0193 00000000 		.4byte	.LVL0-.Ltext0
 2669 0197 0C000000 		.4byte	.LVL1-.Ltext0
 2670 019b 0100     		.2byte	0x1
 2671 019d 52       		.byte	0x52
 2672 019e 0C000000 		.4byte	.LVL1-.Ltext0
 2673 01a2 15000000 		.4byte	.LVL4-1-.Ltext0
 2674 01a6 0200     		.2byte	0x2
 2675 01a8 91       		.byte	0x91
 2676 01a9 70       		.sleb128 -16
 2677 01aa 15000000 		.4byte	.LVL4-1-.Ltext0
 2678 01ae 1C000000 		.4byte	.LFE143-.Ltext0
 2679 01b2 0400     		.2byte	0x4
 2680 01b4 F3       		.byte	0xf3
 2681 01b5 01       		.uleb128 0x1
 2682 01b6 52       		.byte	0x52
 2683 01b7 9F       		.byte	0x9f
 2684 01b8 00000000 		.4byte	0
 2685 01bc 00000000 		.4byte	0
 2686              		.section	.debug_aranges,"",%progbits
 2687 0000 1C000000 		.4byte	0x1c
 2688 0004 0200     		.2byte	0x2
 2689 0006 00000000 		.4byte	.Ldebug_info0
 2690 000a 04       		.byte	0x4
 2691 000b 00       		.byte	0
 2692 000c 0000     		.2byte	0
 2693 000e 0000     		.2byte	0
 2694 0010 00000000 		.4byte	.Ltext0
 2695 0014 90000000 		.4byte	.Letext0-.Ltext0
 2696 0018 00000000 		.4byte	0
 2697 001c 00000000 		.4byte	0
 2698              		.section	.debug_line,"",%progbits
 2699              	.Ldebug_line0:
 2700 0000 78030000 		.section	.debug_str,"MS",%progbits,1
 2700      02002C03 
 2700      00000201 
 2700      FB0E0D00 
 2700      01010101 
 2701              	.LASF49:
 2702 0000 5F64736F 		.ascii	"_dso_handle\000"
 2702      5F68616E 
 2702      646C6500 
 2703              	.LASF2:
ARM GAS  /var/folders/nl/q97gxh4d5b321tqt4kfb6yzh0000gn/T//ccvnnYlv.s 			page 52


 2704 000c 73686F72 		.ascii	"short int\000"
 2704      7420696E 
 2704      7400
 2705              	.LASF48:
 2706 0016 5F666E61 		.ascii	"_fnargs\000"
 2706      72677300 
 2707              	.LASF102:
 2708 001e 5F72616E 		.ascii	"_rand48\000"
 2708      64343800 
 2709              	.LASF81:
 2710 0026 5F656D65 		.ascii	"_emergency\000"
 2710      7267656E 
 2710      637900
 2711              	.LASF148:
 2712 0031 6572726F 		.ascii	"error_code\000"
 2712      725F636F 
 2712      646500
 2713              	.LASF146:
 2714 003c 6170705F 		.ascii	"app_error_save_and_stop\000"
 2714      6572726F 
 2714      725F7361 
 2714      76655F61 
 2714      6E645F73 
 2715              	.LASF93:
 2716 0054 5F617465 		.ascii	"_atexit0\000"
 2716      78697430 
 2716      00
 2717              	.LASF149:
 2718 005d 6170705F 		.ascii	"app_error_handler\000"
 2718      6572726F 
 2718      725F6861 
 2718      6E646C65 
 2718      7200
 2719              	.LASF122:
 2720 006f 5F776372 		.ascii	"_wcrtomb_state\000"
 2720      746F6D62 
 2720      5F737461 
 2720      746500
 2721              	.LASF123:
 2722 007e 5F776373 		.ascii	"_wcsrtombs_state\000"
 2722      72746F6D 
 2722      62735F73 
 2722      74617465 
 2722      00
 2723              	.LASF11:
 2724 008f 6C6F6E67 		.ascii	"long long unsigned int\000"
 2724      206C6F6E 
 2724      6720756E 
 2724      7369676E 
 2724      65642069 
 2725              	.LASF61:
 2726 00a6 5F6C6266 		.ascii	"_lbfsize\000"
 2726      73697A65 
 2726      00
 2727              	.LASF155:
 2728 00af 5F5F6C6F 		.ascii	"__locale_t\000"
 2728      63616C65 
ARM GAS  /var/folders/nl/q97gxh4d5b321tqt4kfb6yzh0000gn/T//ccvnnYlv.s 			page 53


 2728      5F7400
 2729              	.LASF18:
 2730 00ba 49544D5F 		.ascii	"ITM_RxBuffer\000"
 2730      52784275 
 2730      66666572 
 2730      00
 2731              	.LASF120:
 2732 00c7 5F6D6272 		.ascii	"_mbrtowc_state\000"
 2732      746F7763 
 2732      5F737461 
 2732      746500
 2733              	.LASF115:
 2734 00d6 5F776374 		.ascii	"_wctomb_state\000"
 2734      6F6D625F 
 2734      73746174 
 2734      6500
 2735              	.LASF38:
 2736 00e4 5F5F746D 		.ascii	"__tm_sec\000"
 2736      5F736563 
 2736      00
 2737              	.LASF134:
 2738 00ed 6572726F 		.ascii	"error_info_t\000"
 2738      725F696E 
 2738      666F5F74 
 2738      00
 2739              	.LASF22:
 2740 00fa 5F6F6666 		.ascii	"_off_t\000"
 2740      5F7400
 2741              	.LASF66:
 2742 0101 5F636C6F 		.ascii	"_close\000"
 2742      736500
 2743              	.LASF0:
 2744 0108 7369676E 		.ascii	"signed char\000"
 2744      65642063 
 2744      68617200 
 2745              	.LASF154:
 2746 0114 2F557365 		.ascii	"/Users/lukashann/Documents/Imperial College London/"
 2746      72732F6C 
 2746      756B6173 
 2746      68616E6E 
 2746      2F446F63 
 2747 0147 59656172 		.ascii	"Year 3/Project/fNIRS-Musketeers/nrf52/blinky\000"
 2747      20332F50 
 2747      726F6A65 
 2747      63742F66 
 2747      4E495253 
 2748              	.LASF67:
 2749 0174 5F756275 		.ascii	"_ubuf\000"
 2749      6600
 2750              	.LASF56:
 2751 017a 5F626173 		.ascii	"_base\000"
 2751      6500
 2752              	.LASF40:
 2753 0180 5F5F746D 		.ascii	"__tm_hour\000"
 2753      5F686F75 
 2753      7200
 2754              	.LASF96:
ARM GAS  /var/folders/nl/q97gxh4d5b321tqt4kfb6yzh0000gn/T//ccvnnYlv.s 			page 54


 2755 018a 5F5F7366 		.ascii	"__sf\000"
 2755      00
 2756              	.LASF47:
 2757 018f 5F6F6E5F 		.ascii	"_on_exit_args\000"
 2757      65786974 
 2757      5F617267 
 2757      7300
 2758              	.LASF62:
 2759 019d 5F636F6F 		.ascii	"_cookie\000"
 2759      6B696500 
 2760              	.LASF95:
 2761 01a5 5F5F7367 		.ascii	"__sglue\000"
 2761      6C756500 
 2762              	.LASF7:
 2763 01ad 6C6F6E67 		.ascii	"long int\000"
 2763      20696E74 
 2763      00
 2764              	.LASF59:
 2765 01b6 5F666C61 		.ascii	"_flags\000"
 2765      677300
 2766              	.LASF51:
 2767 01bd 5F69735F 		.ascii	"_is_cxa\000"
 2767      63786100 
 2768              	.LASF77:
 2769 01c5 5F737464 		.ascii	"_stdin\000"
 2769      696E00
 2770              	.LASF87:
 2771 01cc 5F726573 		.ascii	"_result_k\000"
 2771      756C745F 
 2771      6B00
 2772              	.LASF10:
 2773 01d6 6C6F6E67 		.ascii	"long long int\000"
 2773      206C6F6E 
 2773      6720696E 
 2773      7400
 2774              	.LASF14:
 2775 01e4 75696E74 		.ascii	"uint16_t\000"
 2775      31365F74 
 2775      00
 2776              	.LASF91:
 2777 01ed 5F637674 		.ascii	"_cvtbuf\000"
 2777      62756600 
 2778              	.LASF70:
 2779 01f5 5F6F6666 		.ascii	"_offset\000"
 2779      73657400 
 2780              	.LASF121:
 2781 01fd 5F6D6273 		.ascii	"_mbsrtowcs_state\000"
 2781      72746F77 
 2781      63735F73 
 2781      74617465 
 2781      00
 2782              	.LASF119:
 2783 020e 5F6D6272 		.ascii	"_mbrlen_state\000"
 2783      6C656E5F 
 2783      73746174 
 2783      6500
 2784              	.LASF54:
ARM GAS  /var/folders/nl/q97gxh4d5b321tqt4kfb6yzh0000gn/T//ccvnnYlv.s 			page 55


 2785 021c 5F666E73 		.ascii	"_fns\000"
 2785      00
 2786              	.LASF8:
 2787 0221 5F5F7569 		.ascii	"__uint32_t\000"
 2787      6E743332 
 2787      5F7400
 2788              	.LASF34:
 2789 022c 5F736967 		.ascii	"_sign\000"
 2789      6E00
 2790              	.LASF128:
 2791 0232 5F696D70 		.ascii	"_impure_ptr\000"
 2791      7572655F 
 2791      70747200 
 2792              	.LASF79:
 2793 023e 5F737464 		.ascii	"_stderr\000"
 2793      65727200 
 2794              	.LASF36:
 2795 0246 5F426967 		.ascii	"_Bigint\000"
 2795      696E7400 
 2796              	.LASF63:
 2797 024e 5F726561 		.ascii	"_read\000"
 2797      6400
 2798              	.LASF37:
 2799 0254 5F5F746D 		.ascii	"__tm\000"
 2799      00
 2800              	.LASF26:
 2801 0259 5F5F7763 		.ascii	"__wchb\000"
 2801      686200
 2802              	.LASF19:
 2803 0260 53797374 		.ascii	"SystemCoreClock\000"
 2803      656D436F 
 2803      7265436C 
 2803      6F636B00 
 2804              	.LASF78:
 2805 0270 5F737464 		.ascii	"_stdout\000"
 2805      6F757400 
 2806              	.LASF145:
 2807 0278 6C6F6F70 		.ascii	"loop\000"
 2807      00
 2808              	.LASF90:
 2809 027d 5F637674 		.ascii	"_cvtlen\000"
 2809      6C656E00 
 2810              	.LASF9:
 2811 0285 6C6F6E67 		.ascii	"long unsigned int\000"
 2811      20756E73 
 2811      69676E65 
 2811      6420696E 
 2811      7400
 2812              	.LASF60:
 2813 0297 5F66696C 		.ascii	"_file\000"
 2813      6500
 2814              	.LASF132:
 2815 029d 705F6669 		.ascii	"p_file_name\000"
 2815      6C655F6E 
 2815      616D6500 
 2816              	.LASF71:
 2817 02a9 5F646174 		.ascii	"_data\000"
ARM GAS  /var/folders/nl/q97gxh4d5b321tqt4kfb6yzh0000gn/T//ccvnnYlv.s 			page 56


 2817      6100
 2818              	.LASF137:
 2819 02af 5F5F5374 		.ascii	"__StackLimit\000"
 2819      61636B4C 
 2819      696D6974 
 2819      00
 2820              	.LASF100:
 2821 02bc 5F6E696F 		.ascii	"_niobs\000"
 2821      627300
 2822              	.LASF111:
 2823 02c3 5F72616E 		.ascii	"_rand_next\000"
 2823      645F6E65 
 2823      787400
 2824              	.LASF117:
 2825 02ce 5F736967 		.ascii	"_signal_buf\000"
 2825      6E616C5F 
 2825      62756600 
 2826              	.LASF108:
 2827 02da 5F617363 		.ascii	"_asctime_buf\000"
 2827      74696D65 
 2827      5F627566 
 2827      00
 2828              	.LASF86:
 2829 02e7 5F726573 		.ascii	"_result\000"
 2829      756C7400 
 2830              	.LASF25:
 2831 02ef 5F5F7763 		.ascii	"__wch\000"
 2831      6800
 2832              	.LASF92:
 2833 02f5 5F6E6577 		.ascii	"_new\000"
 2833      00
 2834              	.LASF72:
 2835 02fa 5F6C6F63 		.ascii	"_lock\000"
 2835      6B00
 2836              	.LASF104:
 2837 0300 5F6D756C 		.ascii	"_mult\000"
 2837      7400
 2838              	.LASF64:
 2839 0306 5F777269 		.ascii	"_write\000"
 2839      746500
 2840              	.LASF43:
 2841 030d 5F5F746D 		.ascii	"__tm_year\000"
 2841      5F796561 
 2841      7200
 2842              	.LASF126:
 2843 0317 5F6E6D61 		.ascii	"_nmalloc\000"
 2843      6C6C6F63 
 2843      00
 2844              	.LASF130:
 2845 0320 7265745F 		.ascii	"ret_code_t\000"
 2845      636F6465 
 2845      5F7400
 2846              	.LASF17:
 2847 032b 73697A65 		.ascii	"sizetype\000"
 2847      74797065 
 2847      00
 2848              	.LASF152:
ARM GAS  /var/folders/nl/q97gxh4d5b321tqt4kfb6yzh0000gn/T//ccvnnYlv.s 			page 57


 2849 0334 474E5520 		.ascii	"GNU C11 6.2.1 20161205 (release) [ARM/embedded-6-br"
 2849      43313120 
 2849      362E322E 
 2849      31203230 
 2849      31363132 
 2850 0367 616E6368 		.ascii	"anch revision 243739] -mcpu=cortex-m4 -mthumb -gdwa"
 2850      20726576 
 2850      6973696F 
 2850      6E203234 
 2850      33373339 
 2851 039a 72662D32 		.ascii	"rf-2 -Os -fomit-frame-pointer\000"
 2851      202D4F73 
 2851      202D666F 
 2851      6D69742D 
 2851      6672616D 
 2852              	.LASF133:
 2853 03b8 6572725F 		.ascii	"err_code\000"
 2853      636F6465 
 2853      00
 2854              	.LASF131:
 2855 03c1 6C696E65 		.ascii	"line_num\000"
 2855      5F6E756D 
 2855      00
 2856              	.LASF135:
 2857 03ca 61737365 		.ascii	"assert_info_t\000"
 2857      72745F69 
 2857      6E666F5F 
 2857      7400
 2858              	.LASF144:
 2859 03d8 6D5F6572 		.ascii	"m_error_data\000"
 2859      726F725F 
 2859      64617461 
 2859      00
 2860              	.LASF125:
 2861 03e5 5F6E6578 		.ascii	"_nextf\000"
 2861      746600
 2862              	.LASF42:
 2863 03ec 5F5F746D 		.ascii	"__tm_mon\000"
 2863      5F6D6F6E 
 2863      00
 2864              	.LASF52:
 2865 03f5 5F617465 		.ascii	"_atexit\000"
 2865      78697400 
 2866              	.LASF84:
 2867 03fd 5F5F7364 		.ascii	"__sdidinit\000"
 2867      6964696E 
 2867      697400
 2868              	.LASF110:
 2869 0408 5F67616D 		.ascii	"_gamma_signgam\000"
 2869      6D615F73 
 2869      69676E67 
 2869      616D00
 2870              	.LASF142:
 2871 0417 705F6173 		.ascii	"p_assert_info\000"
 2871      73657274 
 2871      5F696E66 
 2871      6F00
ARM GAS  /var/folders/nl/q97gxh4d5b321tqt4kfb6yzh0000gn/T//ccvnnYlv.s 			page 58


 2872              	.LASF151:
 2873 0425 5F5F656E 		.ascii	"__enable_irq\000"
 2873      61626C65 
 2873      5F697271 
 2873      00
 2874              	.LASF24:
 2875 0432 77696E74 		.ascii	"wint_t\000"
 2875      5F7400
 2876              	.LASF89:
 2877 0439 5F667265 		.ascii	"_freelist\000"
 2877      656C6973 
 2877      7400
 2878              	.LASF143:
 2879 0443 705F6572 		.ascii	"p_error_info\000"
 2879      726F725F 
 2879      696E666F 
 2879      00
 2880              	.LASF150:
 2881 0450 5F5F6469 		.ascii	"__disable_irq\000"
 2881      7361626C 
 2881      655F6972 
 2881      7100
 2882              	.LASF21:
 2883 045e 5F4C4F43 		.ascii	"_LOCK_RECURSIVE_T\000"
 2883      4B5F5245 
 2883      43555253 
 2883      4956455F 
 2883      5400
 2884              	.LASF136:
 2885 0470 5F5F5374 		.ascii	"__StackTop\000"
 2885      61636B54 
 2885      6F7000
 2886              	.LASF138:
 2887 047b 5F426F6F 		.ascii	"_Bool\000"
 2887      6C00
 2888              	.LASF15:
 2889 0481 696E7433 		.ascii	"int32_t\000"
 2889      325F7400 
 2890              	.LASF1:
 2891 0489 756E7369 		.ascii	"unsigned char\000"
 2891      676E6564 
 2891      20636861 
 2891      7200
 2892              	.LASF101:
 2893 0497 5F696F62 		.ascii	"_iobs\000"
 2893      7300
 2894              	.LASF124:
 2895 049d 5F685F65 		.ascii	"_h_errno\000"
 2895      72726E6F 
 2895      00
 2896              	.LASF30:
 2897 04a6 5F666C6F 		.ascii	"_flock_t\000"
 2897      636B5F74 
 2897      00
 2898              	.LASF45:
 2899 04af 5F5F746D 		.ascii	"__tm_yday\000"
 2899      5F796461 
ARM GAS  /var/folders/nl/q97gxh4d5b321tqt4kfb6yzh0000gn/T//ccvnnYlv.s 			page 59


 2899      7900
 2900              	.LASF55:
 2901 04b9 5F5F7362 		.ascii	"__sbuf\000"
 2901      756600
 2902              	.LASF74:
 2903 04c0 5F666C61 		.ascii	"_flags2\000"
 2903      67733200 
 2904              	.LASF140:
 2905 04c8 6661756C 		.ascii	"fault_id\000"
 2905      745F6964 
 2905      00
 2906              	.LASF98:
 2907 04d1 5F5F4649 		.ascii	"__FILE\000"
 2907      4C4500
 2908              	.LASF29:
 2909 04d8 5F6D6273 		.ascii	"_mbstate_t\000"
 2909      74617465 
 2909      5F7400
 2910              	.LASF58:
 2911 04e3 5F5F7346 		.ascii	"__sFILE\000"
 2911      494C4500 
 2912              	.LASF73:
 2913 04eb 5F6D6273 		.ascii	"_mbstate\000"
 2913      74617465 
 2913      00
 2914              	.LASF113:
 2915 04f4 5F6D626C 		.ascii	"_mblen_state\000"
 2915      656E5F73 
 2915      74617465 
 2915      00
 2916              	.LASF80:
 2917 0501 5F696E63 		.ascii	"_inc\000"
 2917      00
 2918              	.LASF53:
 2919 0506 5F696E64 		.ascii	"_ind\000"
 2919      00
 2920              	.LASF153:
 2921 050b 2E2E2F73 		.ascii	"../sdk/nRF5_SDK_12.2.0_f012efa/components/libraries"
 2921      646B2F6E 
 2921      5246355F 
 2921      53444B5F 
 2921      31322E32 
 2922 053e 2F757469 		.ascii	"/util/app_error.c\000"
 2922      6C2F6170 
 2922      705F6572 
 2922      726F722E 
 2922      6300
 2923              	.LASF83:
 2924 0550 5F6C6F63 		.ascii	"_locale\000"
 2924      616C6500 
 2925              	.LASF85:
 2926 0558 5F5F636C 		.ascii	"__cleanup\000"
 2926      65616E75 
 2926      7000
 2927              	.LASF82:
 2928 0562 5F756E73 		.ascii	"_unspecified_locale_info\000"
 2928      70656369 
ARM GAS  /var/folders/nl/q97gxh4d5b321tqt4kfb6yzh0000gn/T//ccvnnYlv.s 			page 60


 2928      66696564 
 2928      5F6C6F63 
 2928      616C655F 
 2929              	.LASF33:
 2930 057b 5F6D6178 		.ascii	"_maxwds\000"
 2930      77647300 
 2931              	.LASF75:
 2932 0583 5F726565 		.ascii	"_reent\000"
 2932      6E7400
 2933              	.LASF103:
 2934 058a 5F736565 		.ascii	"_seed\000"
 2934      6400
 2935              	.LASF27:
 2936 0590 5F5F636F 		.ascii	"__count\000"
 2936      756E7400 
 2937              	.LASF28:
 2938 0598 5F5F7661 		.ascii	"__value\000"
 2938      6C756500 
 2939              	.LASF65:
 2940 05a0 5F736565 		.ascii	"_seek\000"
 2940      6B00
 2941              	.LASF44:
 2942 05a6 5F5F746D 		.ascii	"__tm_wday\000"
 2942      5F776461 
 2942      7900
 2943              	.LASF3:
 2944 05b0 5F5F7569 		.ascii	"__uint8_t\000"
 2944      6E74385F 
 2944      7400
 2945              	.LASF23:
 2946 05ba 5F66706F 		.ascii	"_fpos_t\000"
 2946      735F7400 
 2947              	.LASF20:
 2948 05c2 6C6F6E67 		.ascii	"long double\000"
 2948      20646F75 
 2948      626C6500 
 2949              	.LASF76:
 2950 05ce 5F657272 		.ascii	"_errno\000"
 2950      6E6F00
 2951              	.LASF97:
 2952 05d5 63686172 		.ascii	"char\000"
 2952      00
 2953              	.LASF69:
 2954 05da 5F626C6B 		.ascii	"_blksize\000"
 2954      73697A65 
 2954      00
 2955              	.LASF57:
 2956 05e3 5F73697A 		.ascii	"_size\000"
 2956      6500
 2957              	.LASF12:
 2958 05e9 756E7369 		.ascii	"unsigned int\000"
 2958      676E6564 
 2958      20696E74 
 2958      00
 2959              	.LASF139:
 2960 05f6 696E666F 		.ascii	"info\000"
 2960      00
ARM GAS  /var/folders/nl/q97gxh4d5b321tqt4kfb6yzh0000gn/T//ccvnnYlv.s 			page 61


 2961              	.LASF4:
 2962 05fb 5F5F7569 		.ascii	"__uint16_t\000"
 2962      6E743136 
 2962      5F7400
 2963              	.LASF6:
 2964 0606 5F5F696E 		.ascii	"__int32_t\000"
 2964      7433325F 
 2964      7400
 2965              	.LASF156:
 2966 0610 6170705F 		.ascii	"app_error_fault_handler\000"
 2966      6572726F 
 2966      725F6661 
 2966      756C745F 
 2966      68616E64 
 2967              	.LASF32:
 2968 0628 5F6E6578 		.ascii	"_next\000"
 2968      7400
 2969              	.LASF107:
 2970 062e 5F737472 		.ascii	"_strtok_last\000"
 2970      746F6B5F 
 2970      6C617374 
 2970      00
 2971              	.LASF50:
 2972 063b 5F666E74 		.ascii	"_fntypes\000"
 2972      79706573 
 2972      00
 2973              	.LASF5:
 2974 0644 73686F72 		.ascii	"short unsigned int\000"
 2974      7420756E 
 2974      7369676E 
 2974      65642069 
 2974      6E7400
 2975              	.LASF105:
 2976 0657 5F616464 		.ascii	"_add\000"
 2976      00
 2977              	.LASF31:
 2978 065c 5F5F554C 		.ascii	"__ULong\000"
 2978      6F6E6700 
 2979              	.LASF118:
 2980 0664 5F676574 		.ascii	"_getdate_err\000"
 2980      64617465 
 2980      5F657272 
 2980      00
 2981              	.LASF141:
 2982 0671 6572726F 		.ascii	"error_info\000"
 2982      725F696E 
 2982      666F00
 2983              	.LASF129:
 2984 067c 5F676C6F 		.ascii	"_global_impure_ptr\000"
 2984      62616C5F 
 2984      696D7075 
 2984      72655F70 
 2984      747200
 2985              	.LASF16:
 2986 068f 75696E74 		.ascii	"uint32_t\000"
 2986      33325F74 
 2986      00
ARM GAS  /var/folders/nl/q97gxh4d5b321tqt4kfb6yzh0000gn/T//ccvnnYlv.s 			page 62


 2987              	.LASF106:
 2988 0698 5F756E75 		.ascii	"_unused_rand\000"
 2988      7365645F 
 2988      72616E64 
 2988      00
 2989              	.LASF147:
 2990 06a5 6170705F 		.ascii	"app_error_handler_bare\000"
 2990      6572726F 
 2990      725F6861 
 2990      6E646C65 
 2990      725F6261 
 2991              	.LASF35:
 2992 06bc 5F776473 		.ascii	"_wds\000"
 2992      00
 2993              	.LASF99:
 2994 06c1 5F676C75 		.ascii	"_glue\000"
 2994      6500
 2995              	.LASF13:
 2996 06c7 75696E74 		.ascii	"uint8_t\000"
 2996      385F7400 
 2997              	.LASF116:
 2998 06cf 5F6C3634 		.ascii	"_l64a_buf\000"
 2998      615F6275 
 2998      6600
 2999              	.LASF94:
 3000 06d9 5F736967 		.ascii	"_sig_func\000"
 3000      5F66756E 
 3000      6300
 3001              	.LASF68:
 3002 06e3 5F6E6275 		.ascii	"_nbuf\000"
 3002      6600
 3003              	.LASF127:
 3004 06e9 5F756E75 		.ascii	"_unused\000"
 3004      73656400 
 3005              	.LASF46:
 3006 06f1 5F5F746D 		.ascii	"__tm_isdst\000"
 3006      5F697364 
 3006      737400
 3007              	.LASF109:
 3008 06fc 5F6C6F63 		.ascii	"_localtime_buf\000"
 3008      616C7469 
 3008      6D655F62 
 3008      756600
 3009              	.LASF39:
 3010 070b 5F5F746D 		.ascii	"__tm_min\000"
 3010      5F6D696E 
 3010      00
 3011              	.LASF112:
 3012 0714 5F723438 		.ascii	"_r48\000"
 3012      00
 3013              	.LASF114:
 3014 0719 5F6D6274 		.ascii	"_mbtowc_state\000"
 3014      6F77635F 
 3014      73746174 
 3014      6500
 3015              	.LASF88:
 3016 0727 5F703573 		.ascii	"_p5s\000"
ARM GAS  /var/folders/nl/q97gxh4d5b321tqt4kfb6yzh0000gn/T//ccvnnYlv.s 			page 63


 3016      00
 3017              	.LASF41:
 3018 072c 5F5F746D 		.ascii	"__tm_mday\000"
 3018      5F6D6461 
 3018      7900
 3019              		.ident	"GCC: (GNU Tools for ARM Embedded Processors) 6.2.1 20161205 (release) [ARM/embedded-6-bran
ARM GAS  /var/folders/nl/q97gxh4d5b321tqt4kfb6yzh0000gn/T//ccvnnYlv.s 			page 64


DEFINED SYMBOLS
                            *ABS*:0000000000000000 app_error.c
/var/folders/nl/q97gxh4d5b321tqt4kfb6yzh0000gn/T//ccvnnYlv.s:87     .text:0000000000000000 $t
/var/folders/nl/q97gxh4d5b321tqt4kfb6yzh0000gn/T//ccvnnYlv.s:94     .text:0000000000000000 app_error_handler
/var/folders/nl/q97gxh4d5b321tqt4kfb6yzh0000gn/T//ccvnnYlv.s:135    .text:000000000000001c app_error_handler_bare
/var/folders/nl/q97gxh4d5b321tqt4kfb6yzh0000gn/T//ccvnnYlv.s:175    .text:0000000000000038 app_error_save_and_stop
/var/folders/nl/q97gxh4d5b321tqt4kfb6yzh0000gn/T//ccvnnYlv.s:280    .text:000000000000008c $d
/var/folders/nl/q97gxh4d5b321tqt4kfb6yzh0000gn/T//ccvnnYlv.s:285    .bss:0000000000000000 $d
/var/folders/nl/q97gxh4d5b321tqt4kfb6yzh0000gn/T//ccvnnYlv.s:289    .bss:0000000000000000 m_error_data.7552
                     .debug_frame:0000000000000010 $d

UNDEFINED SYMBOLS
app_error_fault_handler
