ARM GAS  /var/folders/nl/q97gxh4d5b321tqt4kfb6yzh0000gn/T//ccvnnYlv.s 			page 1


   1              		.cpu cortex-m4
   2              		.eabi_attribute 20, 1	@ Tag_ABI_FP_denormal
   3              		.eabi_attribute 21, 1	@ Tag_ABI_FP_exceptions
   4              		.eabi_attribute 23, 3	@ Tag_ABI_FP_number_model
   5              		.eabi_attribute 24, 1	@ Tag_ABI_align8_needed
   6              		.eabi_attribute 25, 1	@ Tag_ABI_align8_preserved
   7              		.eabi_attribute 26, 1	@ Tag_ABI_enum_size
   8              		.eabi_attribute 30, 4	@ Tag_ABI_optimization_goals
   9              		.eabi_attribute 34, 1	@ Tag_CPU_unaligned_access
  10              		.eabi_attribute 18, 4	@ Tag_ABI_PCS_wchar_t
  11              		.file	"app_error.c"
  12              	@ GNU C11 (GNU Tools for ARM Embedded Processors) version 6.2.1 20161205 (release) [ARM/embedded-6-
  13              	@	compiled by GNU C version 5.4.0, GMP version 6.1.0, MPFR version 3.1.4, MPC version 1.0.3, isl ve
  14              	@ GGC heuristics: --param ggc-min-expand=100 --param ggc-min-heapsize=131072
  15              	@ options passed:  -I . -I include/ -I cfg/
  16              	@ -I ../sdk/nRF5_SDK_12.2.0_f012efa/components/toolchain
  17              	@ -I ../sdk/nRF5_SDK_12.2.0_f012efa/components/toolchain/arm
  18              	@ -I ../sdk/nRF5_SDK_12.2.0_f012efa/components/toolchain/gcc
  19              	@ -I ../sdk/nRF5_SDK_12.2.0_f012efa/components/device
  20              	@ -I ../sdk/nRF5_SDK_12.2.0_f012efa/components/toolchain/cmsis/include
  21              	@ -I ../sdk/nRF5_SDK_12.2.0_f012efa/components/libraries/log
  22              	@ -I ../sdk/nRF5_SDK_12.2.0_f012efa/components/libraries/log/src
  23              	@ -I ../sdk/nRF5_SDK_12.2.0_f012efa/components/drivers_nrf/nrf_soc_nosd
  24              	@ -I ../sdk/nRF5_SDK_12.2.0_f012efa/components/drivers_nrf/hal
  25              	@ -I ../sdk/nRF5_SDK_12.2.0_f012efa/components/drivers_nrf/common
  26              	@ -I ../sdk/nRF5_SDK_12.2.0_f012efa/components/libraries/util
  27              	@ -imultilib thumb/v7e-m
  28              	@ -iprefix /Users/lukashann/Documents/Imperial College London/Year 3/Project/fNIRS-Musketeers/nrf52
  29              	@ -isysroot /Users/lukashann/Documents/Imperial College London/Year 3/Project/fNIRS-Musketeers/nrf5
  30              	@ -MD ../sdk/nRF5_SDK_12.2.0_f012efa/components/libraries/util/app_error.d
  31              	@ -MF .depapp_error.o.d -MP
  32              	@ -MQ ../sdk/nRF5_SDK_12.2.0_f012efa/components/libraries/util/app_error.o
  33              	@ -D__USES_INITFINI__ -D NRF52
  34              	@ ../sdk/nRF5_SDK_12.2.0_f012efa/components/libraries/util/app_error.c
  35              	@ -mcpu=cortex-m4 -mthumb
  36              	@ -auxbase-strip ../sdk/nRF5_SDK_12.2.0_f012efa/components/libraries/util/app_error.o
  37              	@ -gdwarf-2 -Os -Wall -Wstrict-prototypes -fomit-frame-pointer
  38              	@ -fverbose-asm
  39              	@ options enabled:  -faggressive-loop-optimizations -falign-jumps
  40              	@ -falign-labels -falign-loops -fauto-inc-dec -fbranch-count-reg
  41              	@ -fcaller-saves -fchkp-check-incomplete-type -fchkp-check-read
  42              	@ -fchkp-check-write -fchkp-instrument-calls -fchkp-narrow-bounds
  43              	@ -fchkp-optimize -fchkp-store-bounds -fchkp-use-static-bounds
  44              	@ -fchkp-use-static-const-bounds -fchkp-use-wrappers
  45              	@ -fcombine-stack-adjustments -fcommon -fcompare-elim -fcprop-registers
  46              	@ -fcrossjumping -fcse-follow-jumps -fdefer-pop
  47              	@ -fdelete-null-pointer-checks -fdevirtualize -fdevirtualize-speculatively
  48              	@ -fdwarf2-cfi-asm -fearly-inlining -feliminate-unused-debug-types
  49              	@ -fexpensive-optimizations -fforward-propagate -ffunction-cse -fgcse
  50              	@ -fgcse-lm -fgnu-runtime -fgnu-unique -fguess-branch-probability
  51              	@ -fhoist-adjacent-loads -fident -fif-conversion -fif-conversion2
  52              	@ -findirect-inlining -finline -finline-atomics -finline-functions
  53              	@ -finline-functions-called-once -finline-small-functions -fipa-cp
  54              	@ -fipa-cp-alignment -fipa-icf -fipa-icf-functions -fipa-icf-variables
  55              	@ -fipa-profile -fipa-pure-const -fipa-ra -fipa-reference -fipa-sra
  56              	@ -fira-hoist-pressure -fira-share-save-slots -fira-share-spill-slots
  57              	@ -fisolate-erroneous-paths-dereference -fivopts -fkeep-static-consts
ARM GAS  /var/folders/nl/q97gxh4d5b321tqt4kfb6yzh0000gn/T//ccvnnYlv.s 			page 2


  58              	@ -fleading-underscore -flifetime-dse -flra-remat -flto-odr-type-merging
  59              	@ -fmath-errno -fmerge-constants -fmerge-debug-strings
  60              	@ -fmove-loop-invariants -fomit-frame-pointer -foptimize-sibling-calls
  61              	@ -fpartial-inlining -fpeephole -fpeephole2 -fplt -fprefetch-loop-arrays
  62              	@ -freg-struct-return -freorder-blocks -freorder-functions
  63              	@ -frerun-cse-after-loop -fsched-critical-path-heuristic
  64              	@ -fsched-dep-count-heuristic -fsched-group-heuristic -fsched-interblock
  65              	@ -fsched-last-insn-heuristic -fsched-pressure -fsched-rank-heuristic
  66              	@ -fsched-spec -fsched-spec-insn-heuristic -fsched-stalled-insns-dep
  67              	@ -fschedule-insns2 -fsection-anchors -fsemantic-interposition
  68              	@ -fshow-column -fsigned-zeros -fsplit-ivs-in-unroller -fsplit-wide-types
  69              	@ -fssa-backprop -fssa-phiopt -fstdarg-opt -fstrict-aliasing
  70              	@ -fstrict-overflow -fstrict-volatile-bitfields -fsync-libcalls
  71              	@ -fthread-jumps -ftoplevel-reorder -ftrapping-math -ftree-bit-ccp
  72              	@ -ftree-builtin-call-dce -ftree-ccp -ftree-ch -ftree-coalesce-vars
  73              	@ -ftree-copy-prop -ftree-cselim -ftree-dce -ftree-dominator-opts
  74              	@ -ftree-dse -ftree-forwprop -ftree-fre -ftree-loop-if-convert
  75              	@ -ftree-loop-im -ftree-loop-ivcanon -ftree-loop-optimize
  76              	@ -ftree-parallelize-loops= -ftree-phiprop -ftree-pre -ftree-pta
  77              	@ -ftree-reassoc -ftree-scev-cprop -ftree-sink -ftree-slsr -ftree-sra
  78              	@ -ftree-switch-conversion -ftree-tail-merge -ftree-ter -ftree-vrp
  79              	@ -funit-at-a-time -fvar-tracking -fvar-tracking-assignments -fverbose-asm
  80              	@ -fzero-initialized-in-bss -masm-syntax-unified -mlittle-endian
  81              	@ -mpic-data-is-text-relative -msched-prolog -mthumb -munaligned-access
  82              	@ -mvectorize-with-neon-quad
  83              	
  84              		.text
  85              	.Ltext0:
  86              		.cfi_sections	.debug_frame
  87              		.align	1
  88              		.global	app_error_handler
  89              		.syntax unified
  90              		.thumb
  91              		.thumb_func
  92              		.fpu softvfp
  93              		.type	app_error_handler, %function
  94              	app_error_handler:
  95              	.LFB143:
  96              		.file 1 "../sdk/nRF5_SDK_12.2.0_f012efa/components/libraries/util/app_error.c"
   1:../sdk/nRF5_SDK_12.2.0_f012efa/components/libraries/util/app_error.c **** /* Copyright (c) 2014 Nordic Semiconductor. All Rights Reserved.
   2:../sdk/nRF5_SDK_12.2.0_f012efa/components/libraries/util/app_error.c ****  *
   3:../sdk/nRF5_SDK_12.2.0_f012efa/components/libraries/util/app_error.c ****  * The information contained herein is property of Nordic Semiconductor ASA.
   4:../sdk/nRF5_SDK_12.2.0_f012efa/components/libraries/util/app_error.c ****  * Terms and conditions of usage are described in detail in NORDIC
   5:../sdk/nRF5_SDK_12.2.0_f012efa/components/libraries/util/app_error.c ****  * SEMICONDUCTOR STANDARD SOFTWARE LICENSE AGREEMENT.
   6:../sdk/nRF5_SDK_12.2.0_f012efa/components/libraries/util/app_error.c ****  *
   7:../sdk/nRF5_SDK_12.2.0_f012efa/components/libraries/util/app_error.c ****  * Licensees are granted free, non-transferable use of the information. NO
   8:../sdk/nRF5_SDK_12.2.0_f012efa/components/libraries/util/app_error.c ****  * WARRANTY of ANY KIND is provided. This heading must NOT be removed from
   9:../sdk/nRF5_SDK_12.2.0_f012efa/components/libraries/util/app_error.c ****  * the file.
  10:../sdk/nRF5_SDK_12.2.0_f012efa/components/libraries/util/app_error.c ****  *
  11:../sdk/nRF5_SDK_12.2.0_f012efa/components/libraries/util/app_error.c ****  */
  12:../sdk/nRF5_SDK_12.2.0_f012efa/components/libraries/util/app_error.c **** 
  13:../sdk/nRF5_SDK_12.2.0_f012efa/components/libraries/util/app_error.c **** /** @file
  14:../sdk/nRF5_SDK_12.2.0_f012efa/components/libraries/util/app_error.c ****  *
  15:../sdk/nRF5_SDK_12.2.0_f012efa/components/libraries/util/app_error.c ****  * @defgroup app_error Common application error handler
  16:../sdk/nRF5_SDK_12.2.0_f012efa/components/libraries/util/app_error.c ****  * @{
  17:../sdk/nRF5_SDK_12.2.0_f012efa/components/libraries/util/app_error.c ****  * @ingroup app_common
  18:../sdk/nRF5_SDK_12.2.0_f012efa/components/libraries/util/app_error.c ****  *
ARM GAS  /var/folders/nl/q97gxh4d5b321tqt4kfb6yzh0000gn/T//ccvnnYlv.s 			page 3


  19:../sdk/nRF5_SDK_12.2.0_f012efa/components/libraries/util/app_error.c ****  * @brief Common application error handler.
  20:../sdk/nRF5_SDK_12.2.0_f012efa/components/libraries/util/app_error.c ****  */
  21:../sdk/nRF5_SDK_12.2.0_f012efa/components/libraries/util/app_error.c **** 
  22:../sdk/nRF5_SDK_12.2.0_f012efa/components/libraries/util/app_error.c **** #include "nrf.h"
  23:../sdk/nRF5_SDK_12.2.0_f012efa/components/libraries/util/app_error.c **** #include <stdio.h>
  24:../sdk/nRF5_SDK_12.2.0_f012efa/components/libraries/util/app_error.c **** #include "app_error.h"
  25:../sdk/nRF5_SDK_12.2.0_f012efa/components/libraries/util/app_error.c **** #include "nordic_common.h"
  26:../sdk/nRF5_SDK_12.2.0_f012efa/components/libraries/util/app_error.c **** #include "sdk_errors.h"
  27:../sdk/nRF5_SDK_12.2.0_f012efa/components/libraries/util/app_error.c **** #include "nrf_log.h"
  28:../sdk/nRF5_SDK_12.2.0_f012efa/components/libraries/util/app_error.c **** #include "nrf_log_ctrl.h"
  29:../sdk/nRF5_SDK_12.2.0_f012efa/components/libraries/util/app_error.c **** /**@brief Function for error handling, which is called when an error has occurred.
  30:../sdk/nRF5_SDK_12.2.0_f012efa/components/libraries/util/app_error.c ****  *
  31:../sdk/nRF5_SDK_12.2.0_f012efa/components/libraries/util/app_error.c ****  * @warning This handler is an example only and does not fit a final product. You need to analyze
  32:../sdk/nRF5_SDK_12.2.0_f012efa/components/libraries/util/app_error.c ****  *          how your product is supposed to react in case of error.
  33:../sdk/nRF5_SDK_12.2.0_f012efa/components/libraries/util/app_error.c ****  *
  34:../sdk/nRF5_SDK_12.2.0_f012efa/components/libraries/util/app_error.c ****  * @param[in] error_code  Error code supplied to the handler.
  35:../sdk/nRF5_SDK_12.2.0_f012efa/components/libraries/util/app_error.c ****  * @param[in] line_num    Line number where the handler is called.
  36:../sdk/nRF5_SDK_12.2.0_f012efa/components/libraries/util/app_error.c ****  * @param[in] p_file_name Pointer to the file name.
  37:../sdk/nRF5_SDK_12.2.0_f012efa/components/libraries/util/app_error.c ****  */
  38:../sdk/nRF5_SDK_12.2.0_f012efa/components/libraries/util/app_error.c **** 
  39:../sdk/nRF5_SDK_12.2.0_f012efa/components/libraries/util/app_error.c **** /*lint -save -e14 */
  40:../sdk/nRF5_SDK_12.2.0_f012efa/components/libraries/util/app_error.c **** void app_error_handler(ret_code_t error_code, uint32_t line_num, const uint8_t * p_file_name)
  41:../sdk/nRF5_SDK_12.2.0_f012efa/components/libraries/util/app_error.c **** {
  97              		.loc 1 41 0
  98              		.cfi_startproc
  99              		@ args = 0, pretend = 0, frame = 16
 100              		@ frame_needed = 0, uses_anonymous_args = 0
 101              	.LVL0:
 102 0000 1FB5     		push	{r0, r1, r2, r3, r4, lr}	@
 103              	.LCFI0:
 104              		.cfi_def_cfa_offset 24
 105              		.cfi_offset 14, -4
  42:../sdk/nRF5_SDK_12.2.0_f012efa/components/libraries/util/app_error.c ****     error_info_t error_info =
 106              		.loc 1 42 0
 107 0002 ADF80410 		strh	r1, [sp, #4]	@ movhi	@ line_num, error_info.line_num
 108 0006 0292     		str	r2, [sp, #8]	@ p_file_name, error_info.p_file_name
 109 0008 0390     		str	r0, [sp, #12]	@ error_code, error_info.err_code
  43:../sdk/nRF5_SDK_12.2.0_f012efa/components/libraries/util/app_error.c ****     {
  44:../sdk/nRF5_SDK_12.2.0_f012efa/components/libraries/util/app_error.c ****         .line_num    = line_num,
  45:../sdk/nRF5_SDK_12.2.0_f012efa/components/libraries/util/app_error.c ****         .p_file_name = p_file_name,
  46:../sdk/nRF5_SDK_12.2.0_f012efa/components/libraries/util/app_error.c ****         .err_code    = error_code,
  47:../sdk/nRF5_SDK_12.2.0_f012efa/components/libraries/util/app_error.c ****     };
  48:../sdk/nRF5_SDK_12.2.0_f012efa/components/libraries/util/app_error.c ****     app_error_fault_handler(NRF_FAULT_ID_SDK_ERROR, 0, (uint32_t)(&error_info));
 110              		.loc 1 48 0
 111 000a 01AA     		add	r2, sp, #4	@,,
 112              	.LVL1:
 113 000c 0021     		movs	r1, #0	@,
 114              	.LVL2:
 115 000e 44F20100 		movw	r0, #16385	@,
 116              	.LVL3:
 117 0012 FFF7FEFF 		bl	app_error_fault_handler	@
 118              	.LVL4:
  49:../sdk/nRF5_SDK_12.2.0_f012efa/components/libraries/util/app_error.c **** 
  50:../sdk/nRF5_SDK_12.2.0_f012efa/components/libraries/util/app_error.c ****     UNUSED_VARIABLE(error_info);
  51:../sdk/nRF5_SDK_12.2.0_f012efa/components/libraries/util/app_error.c **** }
 119              		.loc 1 51 0
 120 0016 05B0     		add	sp, sp, #20	@,,
ARM GAS  /var/folders/nl/q97gxh4d5b321tqt4kfb6yzh0000gn/T//ccvnnYlv.s 			page 4


 121              	.LCFI1:
 122              		.cfi_def_cfa_offset 4
 123              		@ sp needed	@
 124 0018 5DF804FB 		ldr	pc, [sp], #4	@
 125              		.cfi_endproc
 126              	.LFE143:
 127              		.size	app_error_handler, .-app_error_handler
 128              		.align	1
 129              		.global	app_error_handler_bare
 130              		.syntax unified
 131              		.thumb
 132              		.thumb_func
 133              		.fpu softvfp
 134              		.type	app_error_handler_bare, %function
 135              	app_error_handler_bare:
 136              	.LFB144:
  52:../sdk/nRF5_SDK_12.2.0_f012efa/components/libraries/util/app_error.c **** 
  53:../sdk/nRF5_SDK_12.2.0_f012efa/components/libraries/util/app_error.c **** /*lint -save -e14 */
  54:../sdk/nRF5_SDK_12.2.0_f012efa/components/libraries/util/app_error.c **** void app_error_handler_bare(ret_code_t error_code)
  55:../sdk/nRF5_SDK_12.2.0_f012efa/components/libraries/util/app_error.c **** {
 137              		.loc 1 55 0
 138              		.cfi_startproc
 139              		@ args = 0, pretend = 0, frame = 16
 140              		@ frame_needed = 0, uses_anonymous_args = 0
 141              	.LVL5:
 142 001c 1FB5     		push	{r0, r1, r2, r3, r4, lr}	@
 143              	.LCFI2:
 144              		.cfi_def_cfa_offset 24
 145              		.cfi_offset 14, -4
  56:../sdk/nRF5_SDK_12.2.0_f012efa/components/libraries/util/app_error.c ****     error_info_t error_info =
 146              		.loc 1 56 0
 147 001e 0021     		movs	r1, #0	@ tmp113,
 148 0020 0390     		str	r0, [sp, #12]	@ error_code, error_info.err_code
  57:../sdk/nRF5_SDK_12.2.0_f012efa/components/libraries/util/app_error.c ****     {
  58:../sdk/nRF5_SDK_12.2.0_f012efa/components/libraries/util/app_error.c ****         .line_num    = 0,
  59:../sdk/nRF5_SDK_12.2.0_f012efa/components/libraries/util/app_error.c ****         .p_file_name = NULL,
  60:../sdk/nRF5_SDK_12.2.0_f012efa/components/libraries/util/app_error.c ****         .err_code    = error_code,
  61:../sdk/nRF5_SDK_12.2.0_f012efa/components/libraries/util/app_error.c ****     };
  62:../sdk/nRF5_SDK_12.2.0_f012efa/components/libraries/util/app_error.c **** 
  63:../sdk/nRF5_SDK_12.2.0_f012efa/components/libraries/util/app_error.c ****     app_error_fault_handler(NRF_FAULT_ID_SDK_ERROR, 0, (uint32_t)(&error_info));
 149              		.loc 1 63 0
 150 0022 01AA     		add	r2, sp, #4	@,,
 151 0024 44F20100 		movw	r0, #16385	@,
 152              	.LVL6:
  56:../sdk/nRF5_SDK_12.2.0_f012efa/components/libraries/util/app_error.c ****     error_info_t error_info =
 153              		.loc 1 56 0
 154 0028 ADF80410 		strh	r1, [sp, #4]	@ movhi	@ tmp113, error_info.line_num
 155 002c 0291     		str	r1, [sp, #8]	@ tmp113, error_info.p_file_name
 156              		.loc 1 63 0
 157 002e FFF7FEFF 		bl	app_error_fault_handler	@
 158              	.LVL7:
  64:../sdk/nRF5_SDK_12.2.0_f012efa/components/libraries/util/app_error.c **** 
  65:../sdk/nRF5_SDK_12.2.0_f012efa/components/libraries/util/app_error.c ****     UNUSED_VARIABLE(error_info);
  66:../sdk/nRF5_SDK_12.2.0_f012efa/components/libraries/util/app_error.c **** }
 159              		.loc 1 66 0
 160 0032 05B0     		add	sp, sp, #20	@,,
 161              	.LCFI3:
ARM GAS  /var/folders/nl/q97gxh4d5b321tqt4kfb6yzh0000gn/T//ccvnnYlv.s 			page 5


 162              		.cfi_def_cfa_offset 4
 163              		@ sp needed	@
 164 0034 5DF804FB 		ldr	pc, [sp], #4	@
 165              		.cfi_endproc
 166              	.LFE144:
 167              		.size	app_error_handler_bare, .-app_error_handler_bare
 168              		.align	1
 169              		.global	app_error_save_and_stop
 170              		.syntax unified
 171              		.thumb
 172              		.thumb_func
 173              		.fpu softvfp
 174              		.type	app_error_save_and_stop, %function
 175              	app_error_save_and_stop:
 176              	.LFB145:
  67:../sdk/nRF5_SDK_12.2.0_f012efa/components/libraries/util/app_error.c **** 
  68:../sdk/nRF5_SDK_12.2.0_f012efa/components/libraries/util/app_error.c **** 
  69:../sdk/nRF5_SDK_12.2.0_f012efa/components/libraries/util/app_error.c **** void app_error_save_and_stop(uint32_t id, uint32_t pc, uint32_t info)
  70:../sdk/nRF5_SDK_12.2.0_f012efa/components/libraries/util/app_error.c **** {
 177              		.loc 1 70 0
 178              		.cfi_startproc
 179              		@ args = 0, pretend = 0, frame = 8
 180              		@ frame_needed = 0, uses_anonymous_args = 0
 181              		@ link register save eliminated.
 182              	.LVL8:
 183 0038 82B0     		sub	sp, sp, #8	@,,
 184              	.LCFI4:
 185              		.cfi_def_cfa_offset 8
  71:../sdk/nRF5_SDK_12.2.0_f012efa/components/libraries/util/app_error.c ****     /* static error variables - in order to prevent removal by optimizers */
  72:../sdk/nRF5_SDK_12.2.0_f012efa/components/libraries/util/app_error.c ****     static volatile struct
  73:../sdk/nRF5_SDK_12.2.0_f012efa/components/libraries/util/app_error.c ****     {
  74:../sdk/nRF5_SDK_12.2.0_f012efa/components/libraries/util/app_error.c ****         uint32_t        fault_id;
  75:../sdk/nRF5_SDK_12.2.0_f012efa/components/libraries/util/app_error.c ****         uint32_t        pc;
  76:../sdk/nRF5_SDK_12.2.0_f012efa/components/libraries/util/app_error.c ****         uint32_t        error_info;
  77:../sdk/nRF5_SDK_12.2.0_f012efa/components/libraries/util/app_error.c ****         assert_info_t * p_assert_info;
  78:../sdk/nRF5_SDK_12.2.0_f012efa/components/libraries/util/app_error.c ****         error_info_t  * p_error_info;
  79:../sdk/nRF5_SDK_12.2.0_f012efa/components/libraries/util/app_error.c ****         ret_code_t      err_code;
  80:../sdk/nRF5_SDK_12.2.0_f012efa/components/libraries/util/app_error.c ****         uint32_t        line_num;
  81:../sdk/nRF5_SDK_12.2.0_f012efa/components/libraries/util/app_error.c ****         const uint8_t * p_file_name;
  82:../sdk/nRF5_SDK_12.2.0_f012efa/components/libraries/util/app_error.c ****     } m_error_data = {0};
  83:../sdk/nRF5_SDK_12.2.0_f012efa/components/libraries/util/app_error.c **** 
  84:../sdk/nRF5_SDK_12.2.0_f012efa/components/libraries/util/app_error.c ****     // The following variable helps Keil keep the call stack visible, in addition, it can be set to
  85:../sdk/nRF5_SDK_12.2.0_f012efa/components/libraries/util/app_error.c ****     // 0 in the debugger to continue executing code after the error check.
  86:../sdk/nRF5_SDK_12.2.0_f012efa/components/libraries/util/app_error.c ****     volatile bool loop = true;
 186              		.loc 1 86 0
 187 003a 0123     		movs	r3, #1	@ tmp129,
 188 003c 8DF80730 		strb	r3, [sp, #7]	@ tmp129, loop
  87:../sdk/nRF5_SDK_12.2.0_f012efa/components/libraries/util/app_error.c ****     UNUSED_VARIABLE(loop);
 189              		.loc 1 87 0
 190 0040 9DF80730 		ldrb	r3, [sp, #7]	@ zero_extendqisi2	@ loop, loop
  88:../sdk/nRF5_SDK_12.2.0_f012efa/components/libraries/util/app_error.c **** 
  89:../sdk/nRF5_SDK_12.2.0_f012efa/components/libraries/util/app_error.c ****     m_error_data.fault_id   = id;
 191              		.loc 1 89 0
 192 0044 114B     		ldr	r3, .L10	@ tmp134,
 193 0046 1860     		str	r0, [r3]	@ id, m_error_data.fault_id
  90:../sdk/nRF5_SDK_12.2.0_f012efa/components/libraries/util/app_error.c ****     m_error_data.pc         = pc;
 194              		.loc 1 90 0
ARM GAS  /var/folders/nl/q97gxh4d5b321tqt4kfb6yzh0000gn/T//ccvnnYlv.s 			page 6


 195 0048 5960     		str	r1, [r3, #4]	@ pc, m_error_data.pc
  91:../sdk/nRF5_SDK_12.2.0_f012efa/components/libraries/util/app_error.c ****     m_error_data.error_info = info;
  92:../sdk/nRF5_SDK_12.2.0_f012efa/components/libraries/util/app_error.c **** 
  93:../sdk/nRF5_SDK_12.2.0_f012efa/components/libraries/util/app_error.c ****     switch (id)
 196              		.loc 1 93 0
 197 004a 44F20101 		movw	r1, #16385	@ tmp137,
 198              	.LVL9:
 199 004e 8842     		cmp	r0, r1	@ id, tmp137
  91:../sdk/nRF5_SDK_12.2.0_f012efa/components/libraries/util/app_error.c ****     m_error_data.error_info = info;
 200              		.loc 1 91 0
 201 0050 9A60     		str	r2, [r3, #8]	@ info, m_error_data.error_info
 202              	.LVL10:
 203              		.loc 1 93 0
 204 0052 12D0     		beq	.L5	@,
 205 0054 44F20201 		movw	r1, #16386	@ tmp138,
 206 0058 8842     		cmp	r0, r1	@ id, tmp138
 207 005a 06D1     		bne	.L4	@,
  94:../sdk/nRF5_SDK_12.2.0_f012efa/components/libraries/util/app_error.c ****     {
  95:../sdk/nRF5_SDK_12.2.0_f012efa/components/libraries/util/app_error.c ****         case NRF_FAULT_ID_SDK_ASSERT:
  96:../sdk/nRF5_SDK_12.2.0_f012efa/components/libraries/util/app_error.c ****             m_error_data.p_assert_info = (assert_info_t *)info;
 208              		.loc 1 96 0
 209 005c DA60     		str	r2, [r3, #12]	@ info, m_error_data.p_assert_info
  97:../sdk/nRF5_SDK_12.2.0_f012efa/components/libraries/util/app_error.c ****             m_error_data.line_num      = m_error_data.p_assert_info->line_num;
 210              		.loc 1 97 0
 211 005e DA68     		ldr	r2, [r3, #12]	@ _13, m_error_data.p_assert_info
 212              	.LVL11:
 213 0060 1288     		ldrh	r2, [r2]	@ _15, _13->line_num
 214 0062 9A61     		str	r2, [r3, #24]	@ _15, m_error_data.line_num
 215              	.LVL12:
  98:../sdk/nRF5_SDK_12.2.0_f012efa/components/libraries/util/app_error.c ****             m_error_data.p_file_name   = m_error_data.p_assert_info->p_file_name;
 216              		.loc 1 98 0
 217 0064 DA68     		ldr	r2, [r3, #12]	@ _17, m_error_data.p_assert_info
 218              	.L9:
  99:../sdk/nRF5_SDK_12.2.0_f012efa/components/libraries/util/app_error.c ****             break;
 100:../sdk/nRF5_SDK_12.2.0_f012efa/components/libraries/util/app_error.c **** 
 101:../sdk/nRF5_SDK_12.2.0_f012efa/components/libraries/util/app_error.c ****         case NRF_FAULT_ID_SDK_ERROR:
 102:../sdk/nRF5_SDK_12.2.0_f012efa/components/libraries/util/app_error.c ****             m_error_data.p_error_info = (error_info_t *)info;
 103:../sdk/nRF5_SDK_12.2.0_f012efa/components/libraries/util/app_error.c ****             m_error_data.err_code     = m_error_data.p_error_info->err_code;
 104:../sdk/nRF5_SDK_12.2.0_f012efa/components/libraries/util/app_error.c ****             m_error_data.line_num     = m_error_data.p_error_info->line_num;
 105:../sdk/nRF5_SDK_12.2.0_f012efa/components/libraries/util/app_error.c ****             m_error_data.p_file_name  = m_error_data.p_error_info->p_file_name;
 219              		.loc 1 105 0
 220 0066 5268     		ldr	r2, [r2, #4]	@ _30,
 221 0068 DA61     		str	r2, [r3, #28]	@ _30,
 222              	.L4:
 223              	.LBB6:
 224              	.LBB7:
 225              		.file 2 "../sdk/nRF5_SDK_12.2.0_f012efa/components/toolchain/cmsis/include/cmsis_gcc.h"
   1:../sdk/nRF5_SDK_12.2.0_f012efa/components/toolchain/cmsis/include/cmsis_gcc.h **** /**************************************************************************//**
   2:../sdk/nRF5_SDK_12.2.0_f012efa/components/toolchain/cmsis/include/cmsis_gcc.h ****  * @file     cmsis_gcc.h
   3:../sdk/nRF5_SDK_12.2.0_f012efa/components/toolchain/cmsis/include/cmsis_gcc.h ****  * @brief    CMSIS Cortex-M Core Function/Instruction Header File
   4:../sdk/nRF5_SDK_12.2.0_f012efa/components/toolchain/cmsis/include/cmsis_gcc.h ****  * @version  V4.30
   5:../sdk/nRF5_SDK_12.2.0_f012efa/components/toolchain/cmsis/include/cmsis_gcc.h ****  * @date     20. October 2015
   6:../sdk/nRF5_SDK_12.2.0_f012efa/components/toolchain/cmsis/include/cmsis_gcc.h ****  ******************************************************************************/
   7:../sdk/nRF5_SDK_12.2.0_f012efa/components/toolchain/cmsis/include/cmsis_gcc.h **** /* Copyright (c) 2009 - 2015 ARM LIMITED
   8:../sdk/nRF5_SDK_12.2.0_f012efa/components/toolchain/cmsis/include/cmsis_gcc.h **** 
   9:../sdk/nRF5_SDK_12.2.0_f012efa/components/toolchain/cmsis/include/cmsis_gcc.h ****    All rights reserved.
  10:../sdk/nRF5_SDK_12.2.0_f012efa/components/toolchain/cmsis/include/cmsis_gcc.h ****    Redistribution and use in source and binary forms, with or without
ARM GAS  /var/folders/nl/q97gxh4d5b321tqt4kfb6yzh0000gn/T//ccvnnYlv.s 			page 7


  11:../sdk/nRF5_SDK_12.2.0_f012efa/components/toolchain/cmsis/include/cmsis_gcc.h ****    modification, are permitted provided that the following conditions are met:
  12:../sdk/nRF5_SDK_12.2.0_f012efa/components/toolchain/cmsis/include/cmsis_gcc.h ****    - Redistributions of source code must retain the above copyright
  13:../sdk/nRF5_SDK_12.2.0_f012efa/components/toolchain/cmsis/include/cmsis_gcc.h ****      notice, this list of conditions and the following disclaimer.
  14:../sdk/nRF5_SDK_12.2.0_f012efa/components/toolchain/cmsis/include/cmsis_gcc.h ****    - Redistributions in binary form must reproduce the above copyright
  15:../sdk/nRF5_SDK_12.2.0_f012efa/components/toolchain/cmsis/include/cmsis_gcc.h ****      notice, this list of conditions and the following disclaimer in the
  16:../sdk/nRF5_SDK_12.2.0_f012efa/components/toolchain/cmsis/include/cmsis_gcc.h ****      documentation and/or other materials provided with the distribution.
  17:../sdk/nRF5_SDK_12.2.0_f012efa/components/toolchain/cmsis/include/cmsis_gcc.h ****    - Neither the name of ARM nor the names of its contributors may be used
  18:../sdk/nRF5_SDK_12.2.0_f012efa/components/toolchain/cmsis/include/cmsis_gcc.h ****      to endorse or promote products derived from this software without
  19:../sdk/nRF5_SDK_12.2.0_f012efa/components/toolchain/cmsis/include/cmsis_gcc.h ****      specific prior written permission.
  20:../sdk/nRF5_SDK_12.2.0_f012efa/components/toolchain/cmsis/include/cmsis_gcc.h ****    *
  21:../sdk/nRF5_SDK_12.2.0_f012efa/components/toolchain/cmsis/include/cmsis_gcc.h ****    THIS SOFTWARE IS PROVIDED BY THE COPYRIGHT HOLDERS AND CONTRIBUTORS "AS IS"
  22:../sdk/nRF5_SDK_12.2.0_f012efa/components/toolchain/cmsis/include/cmsis_gcc.h ****    AND ANY EXPRESS OR IMPLIED WARRANTIES, INCLUDING, BUT NOT LIMITED TO, THE
  23:../sdk/nRF5_SDK_12.2.0_f012efa/components/toolchain/cmsis/include/cmsis_gcc.h ****    IMPLIED WARRANTIES OF MERCHANTABILITY AND FITNESS FOR A PARTICULAR PURPOSE
  24:../sdk/nRF5_SDK_12.2.0_f012efa/components/toolchain/cmsis/include/cmsis_gcc.h ****    ARE DISCLAIMED. IN NO EVENT SHALL COPYRIGHT HOLDERS AND CONTRIBUTORS BE
  25:../sdk/nRF5_SDK_12.2.0_f012efa/components/toolchain/cmsis/include/cmsis_gcc.h ****    LIABLE FOR ANY DIRECT, INDIRECT, INCIDENTAL, SPECIAL, EXEMPLARY, OR
  26:../sdk/nRF5_SDK_12.2.0_f012efa/components/toolchain/cmsis/include/cmsis_gcc.h ****    CONSEQUENTIAL DAMAGES (INCLUDING, BUT NOT LIMITED TO, PROCUREMENT OF
  27:../sdk/nRF5_SDK_12.2.0_f012efa/components/toolchain/cmsis/include/cmsis_gcc.h ****    SUBSTITUTE GOODS OR SERVICES; LOSS OF USE, DATA, OR PROFITS; OR BUSINESS
  28:../sdk/nRF5_SDK_12.2.0_f012efa/components/toolchain/cmsis/include/cmsis_gcc.h ****    INTERRUPTION) HOWEVER CAUSED AND ON ANY THEORY OF LIABILITY, WHETHER IN
  29:../sdk/nRF5_SDK_12.2.0_f012efa/components/toolchain/cmsis/include/cmsis_gcc.h ****    CONTRACT, STRICT LIABILITY, OR TORT (INCLUDING NEGLIGENCE OR OTHERWISE)
  30:../sdk/nRF5_SDK_12.2.0_f012efa/components/toolchain/cmsis/include/cmsis_gcc.h ****    ARISING IN ANY WAY OUT OF THE USE OF THIS SOFTWARE, EVEN IF ADVISED OF THE
  31:../sdk/nRF5_SDK_12.2.0_f012efa/components/toolchain/cmsis/include/cmsis_gcc.h ****    POSSIBILITY OF SUCH DAMAGE.
  32:../sdk/nRF5_SDK_12.2.0_f012efa/components/toolchain/cmsis/include/cmsis_gcc.h ****    ---------------------------------------------------------------------------*/
  33:../sdk/nRF5_SDK_12.2.0_f012efa/components/toolchain/cmsis/include/cmsis_gcc.h **** 
  34:../sdk/nRF5_SDK_12.2.0_f012efa/components/toolchain/cmsis/include/cmsis_gcc.h **** 
  35:../sdk/nRF5_SDK_12.2.0_f012efa/components/toolchain/cmsis/include/cmsis_gcc.h **** #ifndef __CMSIS_GCC_H
  36:../sdk/nRF5_SDK_12.2.0_f012efa/components/toolchain/cmsis/include/cmsis_gcc.h **** #define __CMSIS_GCC_H
  37:../sdk/nRF5_SDK_12.2.0_f012efa/components/toolchain/cmsis/include/cmsis_gcc.h **** 
  38:../sdk/nRF5_SDK_12.2.0_f012efa/components/toolchain/cmsis/include/cmsis_gcc.h **** /* ignore some GCC warnings */
  39:../sdk/nRF5_SDK_12.2.0_f012efa/components/toolchain/cmsis/include/cmsis_gcc.h **** #if defined ( __GNUC__ )
  40:../sdk/nRF5_SDK_12.2.0_f012efa/components/toolchain/cmsis/include/cmsis_gcc.h **** #pragma GCC diagnostic push
  41:../sdk/nRF5_SDK_12.2.0_f012efa/components/toolchain/cmsis/include/cmsis_gcc.h **** #pragma GCC diagnostic ignored "-Wsign-conversion"
  42:../sdk/nRF5_SDK_12.2.0_f012efa/components/toolchain/cmsis/include/cmsis_gcc.h **** #pragma GCC diagnostic ignored "-Wconversion"
  43:../sdk/nRF5_SDK_12.2.0_f012efa/components/toolchain/cmsis/include/cmsis_gcc.h **** #pragma GCC diagnostic ignored "-Wunused-parameter"
  44:../sdk/nRF5_SDK_12.2.0_f012efa/components/toolchain/cmsis/include/cmsis_gcc.h **** #endif
  45:../sdk/nRF5_SDK_12.2.0_f012efa/components/toolchain/cmsis/include/cmsis_gcc.h **** 
  46:../sdk/nRF5_SDK_12.2.0_f012efa/components/toolchain/cmsis/include/cmsis_gcc.h **** 
  47:../sdk/nRF5_SDK_12.2.0_f012efa/components/toolchain/cmsis/include/cmsis_gcc.h **** /* ###########################  Core Function Access  ########################### */
  48:../sdk/nRF5_SDK_12.2.0_f012efa/components/toolchain/cmsis/include/cmsis_gcc.h **** /** \ingroup  CMSIS_Core_FunctionInterface
  49:../sdk/nRF5_SDK_12.2.0_f012efa/components/toolchain/cmsis/include/cmsis_gcc.h ****     \defgroup CMSIS_Core_RegAccFunctions CMSIS Core Register Access Functions
  50:../sdk/nRF5_SDK_12.2.0_f012efa/components/toolchain/cmsis/include/cmsis_gcc.h ****   @{
  51:../sdk/nRF5_SDK_12.2.0_f012efa/components/toolchain/cmsis/include/cmsis_gcc.h ****  */
  52:../sdk/nRF5_SDK_12.2.0_f012efa/components/toolchain/cmsis/include/cmsis_gcc.h **** 
  53:../sdk/nRF5_SDK_12.2.0_f012efa/components/toolchain/cmsis/include/cmsis_gcc.h **** /**
  54:../sdk/nRF5_SDK_12.2.0_f012efa/components/toolchain/cmsis/include/cmsis_gcc.h ****   \brief   Enable IRQ Interrupts
  55:../sdk/nRF5_SDK_12.2.0_f012efa/components/toolchain/cmsis/include/cmsis_gcc.h ****   \details Enables IRQ interrupts by clearing the I-bit in the CPSR.
  56:../sdk/nRF5_SDK_12.2.0_f012efa/components/toolchain/cmsis/include/cmsis_gcc.h ****            Can only be executed in Privileged modes.
  57:../sdk/nRF5_SDK_12.2.0_f012efa/components/toolchain/cmsis/include/cmsis_gcc.h ****  */
  58:../sdk/nRF5_SDK_12.2.0_f012efa/components/toolchain/cmsis/include/cmsis_gcc.h **** __attribute__( ( always_inline ) ) __STATIC_INLINE void __enable_irq(void)
  59:../sdk/nRF5_SDK_12.2.0_f012efa/components/toolchain/cmsis/include/cmsis_gcc.h **** {
  60:../sdk/nRF5_SDK_12.2.0_f012efa/components/toolchain/cmsis/include/cmsis_gcc.h ****   __ASM volatile ("cpsie i" : : : "memory");
  61:../sdk/nRF5_SDK_12.2.0_f012efa/components/toolchain/cmsis/include/cmsis_gcc.h **** }
  62:../sdk/nRF5_SDK_12.2.0_f012efa/components/toolchain/cmsis/include/cmsis_gcc.h **** 
  63:../sdk/nRF5_SDK_12.2.0_f012efa/components/toolchain/cmsis/include/cmsis_gcc.h **** 
  64:../sdk/nRF5_SDK_12.2.0_f012efa/components/toolchain/cmsis/include/cmsis_gcc.h **** /**
  65:../sdk/nRF5_SDK_12.2.0_f012efa/components/toolchain/cmsis/include/cmsis_gcc.h ****   \brief   Disable IRQ Interrupts
  66:../sdk/nRF5_SDK_12.2.0_f012efa/components/toolchain/cmsis/include/cmsis_gcc.h ****   \details Disables IRQ interrupts by setting the I-bit in the CPSR.
  67:../sdk/nRF5_SDK_12.2.0_f012efa/components/toolchain/cmsis/include/cmsis_gcc.h ****   Can only be executed in Privileged modes.
ARM GAS  /var/folders/nl/q97gxh4d5b321tqt4kfb6yzh0000gn/T//ccvnnYlv.s 			page 8


  68:../sdk/nRF5_SDK_12.2.0_f012efa/components/toolchain/cmsis/include/cmsis_gcc.h ****  */
  69:../sdk/nRF5_SDK_12.2.0_f012efa/components/toolchain/cmsis/include/cmsis_gcc.h **** __attribute__( ( always_inline ) ) __STATIC_INLINE void __disable_irq(void)
  70:../sdk/nRF5_SDK_12.2.0_f012efa/components/toolchain/cmsis/include/cmsis_gcc.h **** {
  71:../sdk/nRF5_SDK_12.2.0_f012efa/components/toolchain/cmsis/include/cmsis_gcc.h ****   __ASM volatile ("cpsid i" : : : "memory");
 226              		.loc 2 71 0
 227              		.syntax unified
 228              	@ 71 "../sdk/nRF5_SDK_12.2.0_f012efa/components/toolchain/cmsis/include/cmsis_gcc.h" 1
 229 006a 72B6     		cpsid i
 230              	@ 0 "" 2
 231              		.thumb
 232              		.syntax unified
 233              	.L7:
 234              	.LBE7:
 235              	.LBE6:
 106:../sdk/nRF5_SDK_12.2.0_f012efa/components/libraries/util/app_error.c ****             break;
 107:../sdk/nRF5_SDK_12.2.0_f012efa/components/libraries/util/app_error.c ****     }
 108:../sdk/nRF5_SDK_12.2.0_f012efa/components/libraries/util/app_error.c **** 
 109:../sdk/nRF5_SDK_12.2.0_f012efa/components/libraries/util/app_error.c ****     UNUSED_VARIABLE(m_error_data);
 110:../sdk/nRF5_SDK_12.2.0_f012efa/components/libraries/util/app_error.c **** 
 111:../sdk/nRF5_SDK_12.2.0_f012efa/components/libraries/util/app_error.c ****     // If printing is disrupted, remove the irq calls, or set the loop variable to 0 in the debugge
 112:../sdk/nRF5_SDK_12.2.0_f012efa/components/libraries/util/app_error.c ****     __disable_irq();
 113:../sdk/nRF5_SDK_12.2.0_f012efa/components/libraries/util/app_error.c ****     while (loop);
 236              		.loc 1 113 0 discriminator 1
 237 006c 9DF80730 		ldrb	r3, [sp, #7]	@ zero_extendqisi2	@ loop, loop
 238 0070 002B     		cmp	r3, #0	@ loop
 239 0072 FBD1     		bne	.L7	@
 240              	.LBB8:
 241              	.LBB9:
  60:../sdk/nRF5_SDK_12.2.0_f012efa/components/toolchain/cmsis/include/cmsis_gcc.h **** }
 242              		.loc 2 60 0
 243              		.syntax unified
 244              	@ 60 "../sdk/nRF5_SDK_12.2.0_f012efa/components/toolchain/cmsis/include/cmsis_gcc.h" 1
 245 0074 62B6     		cpsie i
 246              	@ 0 "" 2
 247              		.thumb
 248              		.syntax unified
 249              	.LBE9:
 250              	.LBE8:
 114:../sdk/nRF5_SDK_12.2.0_f012efa/components/libraries/util/app_error.c **** 
 115:../sdk/nRF5_SDK_12.2.0_f012efa/components/libraries/util/app_error.c ****     __enable_irq();
 116:../sdk/nRF5_SDK_12.2.0_f012efa/components/libraries/util/app_error.c **** }
 251              		.loc 1 116 0
 252 0076 02B0     		add	sp, sp, #8	@,,
 253              	.LCFI5:
 254              		.cfi_remember_state
 255              		.cfi_def_cfa_offset 0
 256              		@ sp needed	@
 257 0078 7047     		bx	lr	@
 258              	.LVL13:
 259              	.L5:
 260              	.LCFI6:
 261              		.cfi_restore_state
 102:../sdk/nRF5_SDK_12.2.0_f012efa/components/libraries/util/app_error.c ****             m_error_data.err_code     = m_error_data.p_error_info->err_code;
 262              		.loc 1 102 0
 263 007a 1A61     		str	r2, [r3, #16]	@ info, m_error_data.p_error_info
 103:../sdk/nRF5_SDK_12.2.0_f012efa/components/libraries/util/app_error.c ****             m_error_data.line_num     = m_error_data.p_error_info->line_num;
 264              		.loc 1 103 0
ARM GAS  /var/folders/nl/q97gxh4d5b321tqt4kfb6yzh0000gn/T//ccvnnYlv.s 			page 9


 265 007c 1A69     		ldr	r2, [r3, #16]	@ _22, m_error_data.p_error_info
 266              	.LVL14:
 267 007e 9268     		ldr	r2, [r2, #8]	@ _23, _22->err_code
 268 0080 5A61     		str	r2, [r3, #20]	@ _23, m_error_data.err_code
 269              	.LVL15:
 104:../sdk/nRF5_SDK_12.2.0_f012efa/components/libraries/util/app_error.c ****             m_error_data.p_file_name  = m_error_data.p_error_info->p_file_name;
 270              		.loc 1 104 0
 271 0082 1A69     		ldr	r2, [r3, #16]	@ _25, m_error_data.p_error_info
 272 0084 1288     		ldrh	r2, [r2]	@ _27, _25->line_num
 273 0086 9A61     		str	r2, [r3, #24]	@ _27, m_error_data.line_num
 105:../sdk/nRF5_SDK_12.2.0_f012efa/components/libraries/util/app_error.c ****             break;
 274              		.loc 1 105 0
 275 0088 1A69     		ldr	r2, [r3, #16]	@ _29, m_error_data.p_error_info
 276 008a ECE7     		b	.L9	@
 277              	.L11:
 278              		.align	2
 279              	.L10:
 280 008c 00000000 		.word	.LANCHOR0
 281              		.cfi_endproc
 282              	.LFE145:
 283              		.size	app_error_save_and_stop, .-app_error_save_and_stop
 284              		.bss
 285              		.align	2
 286              		.set	.LANCHOR0,. + 0
 287              		.type	m_error_data.7552, %object
 288              		.size	m_error_data.7552, 32
 289              	m_error_data.7552:
 290 0000 00000000 		.space	32
 290      00000000 
 290      00000000 
 290      00000000 
 290      00000000 
 291              		.text
 292              	.Letext0:
 293              		.file 3 "/Users/lukashann/Documents/Imperial College London/Year 3/Project/fNIRS-Musketeers/nrf52/
 294              		.file 4 "/Users/lukashann/Documents/Imperial College London/Year 3/Project/fNIRS-Musketeers/nrf52/
 295              		.file 5 "../sdk/nRF5_SDK_12.2.0_f012efa/components/toolchain/cmsis/include/core_cm4.h"
 296              		.file 6 "../sdk/nRF5_SDK_12.2.0_f012efa/components/toolchain/system_nrf52.h"
 297              		.file 7 "/Users/lukashann/Documents/Imperial College London/Year 3/Project/fNIRS-Musketeers/nrf52/
 298              		.file 8 "/Users/lukashann/Documents/Imperial College London/Year 3/Project/fNIRS-Musketeers/nrf52/
 299              		.file 9 "/Users/lukashann/Documents/Imperial College London/Year 3/Project/fNIRS-Musketeers/nrf52/
 300              		.file 10 "/Users/lukashann/Documents/Imperial College London/Year 3/Project/fNIRS-Musketeers/nrf52
 301              		.file 11 "../sdk/nRF5_SDK_12.2.0_f012efa/components/libraries/util/sdk_errors.h"
 302              		.file 12 "../sdk/nRF5_SDK_12.2.0_f012efa/components/libraries/util/app_error.h"
 303              		.file 13 "../sdk/nRF5_SDK_12.2.0_f012efa/components/libraries/util/app_util.h"
 304              		.file 14 "../sdk/nRF5_SDK_12.2.0_f012efa/components/libraries/util/app_error_weak.h"