ARM GAS  /var/folders/nl/q97gxh4d5b321tqt4kfb6yzh0000gn/T//ccf5XIzu.s 			page 1


   1              		.cpu cortex-m4
   2              		.eabi_attribute 20, 1	@ Tag_ABI_FP_denormal
   3              		.eabi_attribute 21, 1	@ Tag_ABI_FP_exceptions
   4              		.eabi_attribute 23, 3	@ Tag_ABI_FP_number_model
   5              		.eabi_attribute 24, 1	@ Tag_ABI_align8_needed
   6              		.eabi_attribute 25, 1	@ Tag_ABI_align8_preserved
   7              		.eabi_attribute 26, 1	@ Tag_ABI_enum_size
   8              		.eabi_attribute 30, 4	@ Tag_ABI_optimization_goals
   9              		.eabi_attribute 34, 1	@ Tag_CPU_unaligned_access
  10              		.eabi_attribute 18, 4	@ Tag_ABI_PCS_wchar_t
  11              		.file	"nrf_nvmc.c"
  12              	@ GNU C11 (GNU Tools for ARM Embedded Processors) version 6.2.1 20161205 (release) [ARM/embedded-6-
  13              	@	compiled by GNU C version 5.4.0, GMP version 6.1.0, MPFR version 3.1.4, MPC version 1.0.3, isl ve
  14              	@ GGC heuristics: --param ggc-min-expand=100 --param ggc-min-heapsize=131072
  15              	@ options passed:  -I . -I include/ -I cfg/
  16              	@ -I ../sdk/nRF5_SDK_12.2.0_f012efa/components/toolchain/cmsis/include
  17              	@ -I ../sdk/nRF5_SDK_12.2.0_f012efa/components/libraries/log
  18              	@ -I ../sdk/nRF5_SDK_12.2.0_f012efa/components/libraries/log/src
  19              	@ -I ../sdk/nRF5_SDK_12.2.0_f012efa/components/toolchain
  20              	@ -I ../sdk/nRF5_SDK_12.2.0_f012efa/components/toolchain/arm
  21              	@ -I ../sdk/nRF5_SDK_12.2.0_f012efa/components/toolchain/gcc
  22              	@ -I ../sdk/nRF5_SDK_12.2.0_f012efa/components/device
  23              	@ -I ../sdk/nRF5_SDK_12.2.0_f012efa/components/drivers_nrf/nrf_soc_nosd
  24              	@ -I ../sdk/nRF5_SDK_12.2.0_f012efa/components/drivers_nrf/hal
  25              	@ -I ../sdk/nRF5_SDK_12.2.0_f012efa/components/drivers_nrf/common
  26              	@ -I ../sdk/nRF5_SDK_12.2.0_f012efa/components/libraries/util
  27              	@ -imultilib thumb/v7e-m
  28              	@ -iprefix /Users/lukashann/Documents/Imperial College London/Year 3/Project/fNIRS-Musketeers/nrf52
  29              	@ -isysroot /Users/lukashann/Documents/Imperial College London/Year 3/Project/fNIRS-Musketeers/nrf5
  30              	@ -MD ../sdk/nRF5_SDK_12.2.0_f012efa/components/drivers_nrf/hal/nrf_nvmc.d
  31              	@ -MF .depnrf_nvmc.o.d -MP
  32              	@ -MQ ../sdk/nRF5_SDK_12.2.0_f012efa/components/drivers_nrf/hal/nrf_nvmc.o
  33              	@ -D__USES_INITFINI__ -D NRF52
  34              	@ ../sdk/nRF5_SDK_12.2.0_f012efa/components/drivers_nrf/hal/nrf_nvmc.c
  35              	@ -mcpu=cortex-m4 -mthumb
  36              	@ -auxbase-strip ../sdk/nRF5_SDK_12.2.0_f012efa/components/drivers_nrf/hal/nrf_nvmc.o
  37              	@ -gdwarf-2 -Os -Wall -Wstrict-prototypes -fomit-frame-pointer
  38              	@ -fverbose-asm
  39              	@ options enabled:  -faggressive-loop-optimizations -falign-jumps
  40              	@ -falign-labels -falign-loops -fauto-inc-dec -fbranch-count-reg
  41              	@ -fcaller-saves -fchkp-check-incomplete-type -fchkp-check-read
  42              	@ -fchkp-check-write -fchkp-instrument-calls -fchkp-narrow-bounds
  43              	@ -fchkp-optimize -fchkp-store-bounds -fchkp-use-static-bounds
  44              	@ -fchkp-use-static-const-bounds -fchkp-use-wrappers
  45              	@ -fcombine-stack-adjustments -fcommon -fcompare-elim -fcprop-registers
  46              	@ -fcrossjumping -fcse-follow-jumps -fdefer-pop
  47              	@ -fdelete-null-pointer-checks -fdevirtualize -fdevirtualize-speculatively
  48              	@ -fdwarf2-cfi-asm -fearly-inlining -feliminate-unused-debug-types
  49              	@ -fexpensive-optimizations -fforward-propagate -ffunction-cse -fgcse
  50              	@ -fgcse-lm -fgnu-runtime -fgnu-unique -fguess-branch-probability
  51              	@ -fhoist-adjacent-loads -fident -fif-conversion -fif-conversion2
  52              	@ -findirect-inlining -finline -finline-atomics -finline-functions
  53              	@ -finline-functions-called-once -finline-small-functions -fipa-cp
  54              	@ -fipa-cp-alignment -fipa-icf -fipa-icf-functions -fipa-icf-variables
  55              	@ -fipa-profile -fipa-pure-const -fipa-ra -fipa-reference -fipa-sra
  56              	@ -fira-hoist-pressure -fira-share-save-slots -fira-share-spill-slots
  57              	@ -fisolate-erroneous-paths-dereference -fivopts -fkeep-static-consts
ARM GAS  /var/folders/nl/q97gxh4d5b321tqt4kfb6yzh0000gn/T//ccf5XIzu.s 			page 2


  58              	@ -fleading-underscore -flifetime-dse -flra-remat -flto-odr-type-merging
  59              	@ -fmath-errno -fmerge-constants -fmerge-debug-strings
  60              	@ -fmove-loop-invariants -fomit-frame-pointer -foptimize-sibling-calls
  61              	@ -fpartial-inlining -fpeephole -fpeephole2 -fplt -fprefetch-loop-arrays
  62              	@ -freg-struct-return -freorder-blocks -freorder-functions
  63              	@ -frerun-cse-after-loop -fsched-critical-path-heuristic
  64              	@ -fsched-dep-count-heuristic -fsched-group-heuristic -fsched-interblock
  65              	@ -fsched-last-insn-heuristic -fsched-pressure -fsched-rank-heuristic
  66              	@ -fsched-spec -fsched-spec-insn-heuristic -fsched-stalled-insns-dep
  67              	@ -fschedule-insns2 -fsection-anchors -fsemantic-interposition
  68              	@ -fshow-column -fsigned-zeros -fsplit-ivs-in-unroller -fsplit-wide-types
  69              	@ -fssa-backprop -fssa-phiopt -fstdarg-opt -fstrict-aliasing
  70              	@ -fstrict-overflow -fstrict-volatile-bitfields -fsync-libcalls
  71              	@ -fthread-jumps -ftoplevel-reorder -ftrapping-math -ftree-bit-ccp
  72              	@ -ftree-builtin-call-dce -ftree-ccp -ftree-ch -ftree-coalesce-vars
  73              	@ -ftree-copy-prop -ftree-cselim -ftree-dce -ftree-dominator-opts
  74              	@ -ftree-dse -ftree-forwprop -ftree-fre -ftree-loop-if-convert
  75              	@ -ftree-loop-im -ftree-loop-ivcanon -ftree-loop-optimize
  76              	@ -ftree-parallelize-loops= -ftree-phiprop -ftree-pre -ftree-pta
  77              	@ -ftree-reassoc -ftree-scev-cprop -ftree-sink -ftree-slsr -ftree-sra
  78              	@ -ftree-switch-conversion -ftree-tail-merge -ftree-ter -ftree-vrp
  79              	@ -funit-at-a-time -fvar-tracking -fvar-tracking-assignments -fverbose-asm
  80              	@ -fzero-initialized-in-bss -masm-syntax-unified -mlittle-endian
  81              	@ -mpic-data-is-text-relative -msched-prolog -mthumb -munaligned-access
  82              	@ -mvectorize-with-neon-quad
  83              	
  84              		.text
  85              	.Ltext0:
  86              		.cfi_sections	.debug_frame
  87              		.align	1
  88              		.global	nrf_nvmc_page_erase
  89              		.syntax unified
  90              		.thumb
  91              		.thumb_func
  92              		.fpu softvfp
  93              		.type	nrf_nvmc_page_erase, %function
  94              	nrf_nvmc_page_erase:
  95              	.LFB124:
  96              		.file 1 "../sdk/nRF5_SDK_12.2.0_f012efa/components/drivers_nrf/hal/nrf_nvmc.c"
   1:../sdk/nRF5_SDK_12.2.0_f012efa/components/drivers_nrf/hal/nrf_nvmc.c **** /* Copyright (c) 2012 Nordic Semiconductor. All Rights Reserved.
   2:../sdk/nRF5_SDK_12.2.0_f012efa/components/drivers_nrf/hal/nrf_nvmc.c **** *
   3:../sdk/nRF5_SDK_12.2.0_f012efa/components/drivers_nrf/hal/nrf_nvmc.c **** * The information contained herein is property of Nordic Semiconductor ASA.
   4:../sdk/nRF5_SDK_12.2.0_f012efa/components/drivers_nrf/hal/nrf_nvmc.c **** * Terms and conditions of usage are described in detail in NORDIC
   5:../sdk/nRF5_SDK_12.2.0_f012efa/components/drivers_nrf/hal/nrf_nvmc.c **** * SEMICONDUCTOR STANDARD SOFTWARE LICENSE AGREEMENT.
   6:../sdk/nRF5_SDK_12.2.0_f012efa/components/drivers_nrf/hal/nrf_nvmc.c **** *
   7:../sdk/nRF5_SDK_12.2.0_f012efa/components/drivers_nrf/hal/nrf_nvmc.c **** * Licensees are granted free, non-transferable use of the information. NO
   8:../sdk/nRF5_SDK_12.2.0_f012efa/components/drivers_nrf/hal/nrf_nvmc.c **** * WARRANTY of ANY KIND is provided. This heading must NOT be removed from
   9:../sdk/nRF5_SDK_12.2.0_f012efa/components/drivers_nrf/hal/nrf_nvmc.c **** * the file.
  10:../sdk/nRF5_SDK_12.2.0_f012efa/components/drivers_nrf/hal/nrf_nvmc.c **** *
  11:../sdk/nRF5_SDK_12.2.0_f012efa/components/drivers_nrf/hal/nrf_nvmc.c **** * $LastChangedRevision: 17685 $
  12:../sdk/nRF5_SDK_12.2.0_f012efa/components/drivers_nrf/hal/nrf_nvmc.c **** */
  13:../sdk/nRF5_SDK_12.2.0_f012efa/components/drivers_nrf/hal/nrf_nvmc.c **** 
  14:../sdk/nRF5_SDK_12.2.0_f012efa/components/drivers_nrf/hal/nrf_nvmc.c **** /**
  15:../sdk/nRF5_SDK_12.2.0_f012efa/components/drivers_nrf/hal/nrf_nvmc.c ****  *@file
  16:../sdk/nRF5_SDK_12.2.0_f012efa/components/drivers_nrf/hal/nrf_nvmc.c ****  *@brief NMVC driver implementation
  17:../sdk/nRF5_SDK_12.2.0_f012efa/components/drivers_nrf/hal/nrf_nvmc.c ****  */
  18:../sdk/nRF5_SDK_12.2.0_f012efa/components/drivers_nrf/hal/nrf_nvmc.c **** 
ARM GAS  /var/folders/nl/q97gxh4d5b321tqt4kfb6yzh0000gn/T//ccf5XIzu.s 			page 3


  19:../sdk/nRF5_SDK_12.2.0_f012efa/components/drivers_nrf/hal/nrf_nvmc.c **** #include <stdbool.h>
  20:../sdk/nRF5_SDK_12.2.0_f012efa/components/drivers_nrf/hal/nrf_nvmc.c **** #include "nrf.h"
  21:../sdk/nRF5_SDK_12.2.0_f012efa/components/drivers_nrf/hal/nrf_nvmc.c **** #include "nrf_nvmc.h"
  22:../sdk/nRF5_SDK_12.2.0_f012efa/components/drivers_nrf/hal/nrf_nvmc.c **** 
  23:../sdk/nRF5_SDK_12.2.0_f012efa/components/drivers_nrf/hal/nrf_nvmc.c **** 
  24:../sdk/nRF5_SDK_12.2.0_f012efa/components/drivers_nrf/hal/nrf_nvmc.c **** void nrf_nvmc_page_erase(uint32_t address)
  25:../sdk/nRF5_SDK_12.2.0_f012efa/components/drivers_nrf/hal/nrf_nvmc.c **** {
  97              		.loc 1 25 0
  98              		.cfi_startproc
  99              		@ args = 0, pretend = 0, frame = 0
 100              		@ frame_needed = 0, uses_anonymous_args = 0
 101              		@ link register save eliminated.
 102              	.LVL0:
  26:../sdk/nRF5_SDK_12.2.0_f012efa/components/drivers_nrf/hal/nrf_nvmc.c ****     // Enable erase.
  27:../sdk/nRF5_SDK_12.2.0_f012efa/components/drivers_nrf/hal/nrf_nvmc.c ****     NRF_NVMC->CONFIG = NVMC_CONFIG_WEN_Een;
 103              		.loc 1 27 0
 104 0000 0B4B     		ldr	r3, .L11	@ tmp114,
 105 0002 0222     		movs	r2, #2	@ tmp115,
 106 0004 C3F80425 		str	r2, [r3, #1284]	@ tmp115, MEM[(struct NRF_NVMC_Type *)1073864704B].CONFIG
 107              	.L2:
  28:../sdk/nRF5_SDK_12.2.0_f012efa/components/drivers_nrf/hal/nrf_nvmc.c ****     while (NRF_NVMC->READY == NVMC_READY_READY_Busy)
 108              		.loc 1 28 0 discriminator 1
 109 0008 D3F80024 		ldr	r2, [r3, #1024]	@ _3, MEM[(struct NRF_NVMC_Type *)1073864704B].READY
 110 000c 002A     		cmp	r2, #0	@ _3
 111 000e FBD0     		beq	.L2	@
  29:../sdk/nRF5_SDK_12.2.0_f012efa/components/drivers_nrf/hal/nrf_nvmc.c ****     {
  30:../sdk/nRF5_SDK_12.2.0_f012efa/components/drivers_nrf/hal/nrf_nvmc.c ****     }
  31:../sdk/nRF5_SDK_12.2.0_f012efa/components/drivers_nrf/hal/nrf_nvmc.c **** 
  32:../sdk/nRF5_SDK_12.2.0_f012efa/components/drivers_nrf/hal/nrf_nvmc.c ****     // Erase the page
  33:../sdk/nRF5_SDK_12.2.0_f012efa/components/drivers_nrf/hal/nrf_nvmc.c ****     NRF_NVMC->ERASEPAGE = address;
 112              		.loc 1 33 0
 113 0010 C3F80805 		str	r0, [r3, #1288]	@ address, MEM[(struct NRF_NVMC_Type *)1073864704B].D.6100.ERASEPAGE
 114              	.L3:
  34:../sdk/nRF5_SDK_12.2.0_f012efa/components/drivers_nrf/hal/nrf_nvmc.c ****     while (NRF_NVMC->READY == NVMC_READY_READY_Busy)
 115              		.loc 1 34 0 discriminator 1
 116 0014 D3F80024 		ldr	r2, [r3, #1024]	@ _6, MEM[(struct NRF_NVMC_Type *)1073864704B].READY
 117 0018 002A     		cmp	r2, #0	@ _6
 118 001a FBD0     		beq	.L3	@
  35:../sdk/nRF5_SDK_12.2.0_f012efa/components/drivers_nrf/hal/nrf_nvmc.c ****     {
  36:../sdk/nRF5_SDK_12.2.0_f012efa/components/drivers_nrf/hal/nrf_nvmc.c ****     }
  37:../sdk/nRF5_SDK_12.2.0_f012efa/components/drivers_nrf/hal/nrf_nvmc.c **** 
  38:../sdk/nRF5_SDK_12.2.0_f012efa/components/drivers_nrf/hal/nrf_nvmc.c ****     NRF_NVMC->CONFIG = NVMC_CONFIG_WEN_Ren;
 119              		.loc 1 38 0
 120 001c 0022     		movs	r2, #0	@ tmp120,
 121 001e C3F80425 		str	r2, [r3, #1284]	@ tmp120, MEM[(struct NRF_NVMC_Type *)1073864704B].CONFIG
  39:../sdk/nRF5_SDK_12.2.0_f012efa/components/drivers_nrf/hal/nrf_nvmc.c ****     while (NRF_NVMC->READY == NVMC_READY_READY_Busy)
 122              		.loc 1 39 0
 123 0022 034A     		ldr	r2, .L11	@ tmp121,
 124              	.L4:
 125              		.loc 1 39 0 is_stmt 0 discriminator 1
 126 0024 D2F80034 		ldr	r3, [r2, #1024]	@ _8, MEM[(struct NRF_NVMC_Type *)1073864704B].READY
 127 0028 002B     		cmp	r3, #0	@ _8
 128 002a FBD0     		beq	.L4	@
  40:../sdk/nRF5_SDK_12.2.0_f012efa/components/drivers_nrf/hal/nrf_nvmc.c ****     {
  41:../sdk/nRF5_SDK_12.2.0_f012efa/components/drivers_nrf/hal/nrf_nvmc.c ****     }
  42:../sdk/nRF5_SDK_12.2.0_f012efa/components/drivers_nrf/hal/nrf_nvmc.c **** }
 129              		.loc 1 42 0 is_stmt 1
ARM GAS  /var/folders/nl/q97gxh4d5b321tqt4kfb6yzh0000gn/T//ccf5XIzu.s 			page 4


 130 002c 7047     		bx	lr	@
 131              	.L12:
 132 002e 00BF     		.align	2
 133              	.L11:
 134 0030 00E00140 		.word	1073864704
 135              		.cfi_endproc
 136              	.LFE124:
 137              		.size	nrf_nvmc_page_erase, .-nrf_nvmc_page_erase
 138              		.align	1
 139              		.global	nrf_nvmc_write_byte
 140              		.syntax unified
 141              		.thumb
 142              		.thumb_func
 143              		.fpu softvfp
 144              		.type	nrf_nvmc_write_byte, %function
 145              	nrf_nvmc_write_byte:
 146              	.LFB125:
  43:../sdk/nRF5_SDK_12.2.0_f012efa/components/drivers_nrf/hal/nrf_nvmc.c **** 
  44:../sdk/nRF5_SDK_12.2.0_f012efa/components/drivers_nrf/hal/nrf_nvmc.c **** 
  45:../sdk/nRF5_SDK_12.2.0_f012efa/components/drivers_nrf/hal/nrf_nvmc.c **** void nrf_nvmc_write_byte(uint32_t address, uint8_t value)
  46:../sdk/nRF5_SDK_12.2.0_f012efa/components/drivers_nrf/hal/nrf_nvmc.c **** {
 147              		.loc 1 46 0
 148              		.cfi_startproc
 149              		@ args = 0, pretend = 0, frame = 0
 150              		@ frame_needed = 0, uses_anonymous_args = 0
 151              	.LVL1:
 152 0034 10B5     		push	{r4, lr}	@
 153              	.LCFI0:
 154              		.cfi_def_cfa_offset 8
 155              		.cfi_offset 4, -8
 156              		.cfi_offset 14, -4
  47:../sdk/nRF5_SDK_12.2.0_f012efa/components/drivers_nrf/hal/nrf_nvmc.c ****     uint32_t byte_shift = address & (uint32_t)0x03;
  48:../sdk/nRF5_SDK_12.2.0_f012efa/components/drivers_nrf/hal/nrf_nvmc.c ****     uint32_t address32 = address & ~byte_shift; // Address to the word this byte is in.
 157              		.loc 1 48 0
 158 0036 20F00304 		bic	r4, r0, #3	@ address32.0_4, address,
 159              	.LVL2:
  49:../sdk/nRF5_SDK_12.2.0_f012efa/components/drivers_nrf/hal/nrf_nvmc.c ****     uint32_t value32 = (*(uint32_t*)address32 & ~((uint32_t)0xFF << (byte_shift << (uint32_t)3)));
 160              		.loc 1 49 0
 161 003a C000     		lsls	r0, r0, #3	@ tmp125, address,
 162              	.LVL3:
 163 003c 00F01800 		and	r0, r0, #24	@ _7, tmp125,
 164 0040 FF23     		movs	r3, #255	@ tmp127,
 165 0042 03FA00F2 		lsl	r2, r3, r0	@ tmp126, tmp127, _7
 166 0046 2368     		ldr	r3, [r4]	@ *address32.0_4, *address32.0_4
  50:../sdk/nRF5_SDK_12.2.0_f012efa/components/drivers_nrf/hal/nrf_nvmc.c ****     value32 = value32 + ((uint32_t)value << (byte_shift << 3));
 167              		.loc 1 50 0
 168 0048 01FA00F0 		lsl	r0, r1, r0	@ tmp130, value, _7
  49:../sdk/nRF5_SDK_12.2.0_f012efa/components/drivers_nrf/hal/nrf_nvmc.c ****     uint32_t value32 = (*(uint32_t*)address32 & ~((uint32_t)0xFF << (byte_shift << (uint32_t)3)));
 169              		.loc 1 49 0
 170 004c 23EA0203 		bic	r3, r3, r2	@ value32, *address32.0_4, tmp126
 171              	.LVL4:
 172              		.loc 1 50 0
 173 0050 1844     		add	r0, r0, r3	@ value32, value32
 174              	.LVL5:
  51:../sdk/nRF5_SDK_12.2.0_f012efa/components/drivers_nrf/hal/nrf_nvmc.c **** 
  52:../sdk/nRF5_SDK_12.2.0_f012efa/components/drivers_nrf/hal/nrf_nvmc.c ****     // Enable write.
  53:../sdk/nRF5_SDK_12.2.0_f012efa/components/drivers_nrf/hal/nrf_nvmc.c ****     NRF_NVMC->CONFIG = (NVMC_CONFIG_WEN_Wen << NVMC_CONFIG_WEN_Pos);
ARM GAS  /var/folders/nl/q97gxh4d5b321tqt4kfb6yzh0000gn/T//ccf5XIzu.s 			page 5


 175              		.loc 1 53 0
 176 0052 084B     		ldr	r3, .L20	@ tmp131,
 177 0054 0122     		movs	r2, #1	@ tmp132,
 178 0056 C3F80425 		str	r2, [r3, #1284]	@ tmp132, MEM[(struct NRF_NVMC_Type *)1073864704B].CONFIG
 179              	.L14:
  54:../sdk/nRF5_SDK_12.2.0_f012efa/components/drivers_nrf/hal/nrf_nvmc.c ****     while (NRF_NVMC->READY == NVMC_READY_READY_Busy)
 180              		.loc 1 54 0 discriminator 1
 181 005a D3F80024 		ldr	r2, [r3, #1024]	@ _16, MEM[(struct NRF_NVMC_Type *)1073864704B].READY
 182 005e 002A     		cmp	r2, #0	@ _16
 183 0060 FBD0     		beq	.L14	@
  55:../sdk/nRF5_SDK_12.2.0_f012efa/components/drivers_nrf/hal/nrf_nvmc.c ****     {
  56:../sdk/nRF5_SDK_12.2.0_f012efa/components/drivers_nrf/hal/nrf_nvmc.c ****     }
  57:../sdk/nRF5_SDK_12.2.0_f012efa/components/drivers_nrf/hal/nrf_nvmc.c **** 
  58:../sdk/nRF5_SDK_12.2.0_f012efa/components/drivers_nrf/hal/nrf_nvmc.c ****     *(uint32_t*)address32 = value32;
 184              		.loc 1 58 0
 185 0062 2060     		str	r0, [r4]	@ value32, *address32.0_4
 186              	.L15:
  59:../sdk/nRF5_SDK_12.2.0_f012efa/components/drivers_nrf/hal/nrf_nvmc.c ****     while (NRF_NVMC->READY == NVMC_READY_READY_Busy)
 187              		.loc 1 59 0 discriminator 1
 188 0064 D3F80024 		ldr	r2, [r3, #1024]	@ _18, MEM[(struct NRF_NVMC_Type *)1073864704B].READY
 189 0068 002A     		cmp	r2, #0	@ _18
 190 006a FBD0     		beq	.L15	@
  60:../sdk/nRF5_SDK_12.2.0_f012efa/components/drivers_nrf/hal/nrf_nvmc.c ****     {
  61:../sdk/nRF5_SDK_12.2.0_f012efa/components/drivers_nrf/hal/nrf_nvmc.c ****     }
  62:../sdk/nRF5_SDK_12.2.0_f012efa/components/drivers_nrf/hal/nrf_nvmc.c **** 
  63:../sdk/nRF5_SDK_12.2.0_f012efa/components/drivers_nrf/hal/nrf_nvmc.c ****     NRF_NVMC->CONFIG = (NVMC_CONFIG_WEN_Ren << NVMC_CONFIG_WEN_Pos);
 191              		.loc 1 63 0
 192 006c 0022     		movs	r2, #0	@ tmp136,
 193 006e C3F80425 		str	r2, [r3, #1284]	@ tmp136, MEM[(struct NRF_NVMC_Type *)1073864704B].CONFIG
 194 0072 10BD     		pop	{r4, pc}	@
 195              	.LVL6:
 196              	.L21:
 197              		.align	2
 198              	.L20:
 199 0074 00E00140 		.word	1073864704
 200              		.cfi_endproc
 201              	.LFE125:
 202              		.size	nrf_nvmc_write_byte, .-nrf_nvmc_write_byte
 203              		.align	1
 204              		.global	nrf_nvmc_write_word
 205              		.syntax unified
 206              		.thumb
 207              		.thumb_func
 208              		.fpu softvfp
 209              		.type	nrf_nvmc_write_word, %function
 210              	nrf_nvmc_write_word:
 211              	.LFB126:
  64:../sdk/nRF5_SDK_12.2.0_f012efa/components/drivers_nrf/hal/nrf_nvmc.c ****     {
  65:../sdk/nRF5_SDK_12.2.0_f012efa/components/drivers_nrf/hal/nrf_nvmc.c ****     }
  66:../sdk/nRF5_SDK_12.2.0_f012efa/components/drivers_nrf/hal/nrf_nvmc.c **** }
  67:../sdk/nRF5_SDK_12.2.0_f012efa/components/drivers_nrf/hal/nrf_nvmc.c **** 
  68:../sdk/nRF5_SDK_12.2.0_f012efa/components/drivers_nrf/hal/nrf_nvmc.c **** void nrf_nvmc_write_word(uint32_t address, uint32_t value)
  69:../sdk/nRF5_SDK_12.2.0_f012efa/components/drivers_nrf/hal/nrf_nvmc.c **** {
 212              		.loc 1 69 0
 213              		.cfi_startproc
 214              		@ args = 0, pretend = 0, frame = 0
 215              		@ frame_needed = 0, uses_anonymous_args = 0
ARM GAS  /var/folders/nl/q97gxh4d5b321tqt4kfb6yzh0000gn/T//ccf5XIzu.s 			page 6


 216              		@ link register save eliminated.
 217              	.LVL7:
  70:../sdk/nRF5_SDK_12.2.0_f012efa/components/drivers_nrf/hal/nrf_nvmc.c ****     // Enable write.
  71:../sdk/nRF5_SDK_12.2.0_f012efa/components/drivers_nrf/hal/nrf_nvmc.c ****     NRF_NVMC->CONFIG = NVMC_CONFIG_WEN_Wen;
 218              		.loc 1 71 0
 219 0078 0A4B     		ldr	r3, .L32	@ tmp116,
 220 007a 0122     		movs	r2, #1	@ tmp117,
 221 007c C3F80425 		str	r2, [r3, #1284]	@ tmp117, MEM[(struct NRF_NVMC_Type *)1073864704B].CONFIG
 222              	.L23:
  72:../sdk/nRF5_SDK_12.2.0_f012efa/components/drivers_nrf/hal/nrf_nvmc.c ****     while (NRF_NVMC->READY == NVMC_READY_READY_Busy){
 223              		.loc 1 72 0 discriminator 1
 224 0080 D3F80024 		ldr	r2, [r3, #1024]	@ _3, MEM[(struct NRF_NVMC_Type *)1073864704B].READY
 225 0084 002A     		cmp	r2, #0	@ _3
 226 0086 FBD0     		beq	.L23	@
  73:../sdk/nRF5_SDK_12.2.0_f012efa/components/drivers_nrf/hal/nrf_nvmc.c ****     }
  74:../sdk/nRF5_SDK_12.2.0_f012efa/components/drivers_nrf/hal/nrf_nvmc.c **** 
  75:../sdk/nRF5_SDK_12.2.0_f012efa/components/drivers_nrf/hal/nrf_nvmc.c ****     *(uint32_t*)address = value;
 227              		.loc 1 75 0
 228 0088 0160     		str	r1, [r0]	@ value, *address.1_5
 229              	.L24:
  76:../sdk/nRF5_SDK_12.2.0_f012efa/components/drivers_nrf/hal/nrf_nvmc.c ****     while (NRF_NVMC->READY == NVMC_READY_READY_Busy){
 230              		.loc 1 76 0 discriminator 1
 231 008a D3F80024 		ldr	r2, [r3, #1024]	@ _8, MEM[(struct NRF_NVMC_Type *)1073864704B].READY
 232 008e 002A     		cmp	r2, #0	@ _8
 233 0090 FBD0     		beq	.L24	@
  77:../sdk/nRF5_SDK_12.2.0_f012efa/components/drivers_nrf/hal/nrf_nvmc.c ****     }
  78:../sdk/nRF5_SDK_12.2.0_f012efa/components/drivers_nrf/hal/nrf_nvmc.c **** 
  79:../sdk/nRF5_SDK_12.2.0_f012efa/components/drivers_nrf/hal/nrf_nvmc.c ****     NRF_NVMC->CONFIG = NVMC_CONFIG_WEN_Ren;
 234              		.loc 1 79 0
 235 0092 0022     		movs	r2, #0	@ tmp121,
 236 0094 C3F80425 		str	r2, [r3, #1284]	@ tmp121, MEM[(struct NRF_NVMC_Type *)1073864704B].CONFIG
  80:../sdk/nRF5_SDK_12.2.0_f012efa/components/drivers_nrf/hal/nrf_nvmc.c ****     while (NRF_NVMC->READY == NVMC_READY_READY_Busy)
 237              		.loc 1 80 0
 238 0098 024A     		ldr	r2, .L32	@ tmp122,
 239              	.L25:
 240              		.loc 1 80 0 is_stmt 0 discriminator 1
 241 009a D2F80034 		ldr	r3, [r2, #1024]	@ _10, MEM[(struct NRF_NVMC_Type *)1073864704B].READY
 242 009e 002B     		cmp	r3, #0	@ _10
 243 00a0 FBD0     		beq	.L25	@
  81:../sdk/nRF5_SDK_12.2.0_f012efa/components/drivers_nrf/hal/nrf_nvmc.c ****     {
  82:../sdk/nRF5_SDK_12.2.0_f012efa/components/drivers_nrf/hal/nrf_nvmc.c ****     }
  83:../sdk/nRF5_SDK_12.2.0_f012efa/components/drivers_nrf/hal/nrf_nvmc.c **** }
 244              		.loc 1 83 0 is_stmt 1
 245 00a2 7047     		bx	lr	@
 246              	.L33:
 247              		.align	2
 248              	.L32:
 249 00a4 00E00140 		.word	1073864704
 250              		.cfi_endproc
 251              	.LFE126:
 252              		.size	nrf_nvmc_write_word, .-nrf_nvmc_write_word
 253              		.align	1
 254              		.global	nrf_nvmc_write_bytes
 255              		.syntax unified
 256              		.thumb
 257              		.thumb_func
 258              		.fpu softvfp
ARM GAS  /var/folders/nl/q97gxh4d5b321tqt4kfb6yzh0000gn/T//ccf5XIzu.s 			page 7


 259              		.type	nrf_nvmc_write_bytes, %function
 260              	nrf_nvmc_write_bytes:
 261              	.LFB127:
  84:../sdk/nRF5_SDK_12.2.0_f012efa/components/drivers_nrf/hal/nrf_nvmc.c **** 
  85:../sdk/nRF5_SDK_12.2.0_f012efa/components/drivers_nrf/hal/nrf_nvmc.c **** void nrf_nvmc_write_bytes(uint32_t address, const uint8_t * src, uint32_t num_bytes)
  86:../sdk/nRF5_SDK_12.2.0_f012efa/components/drivers_nrf/hal/nrf_nvmc.c **** {
 262              		.loc 1 86 0
 263              		.cfi_startproc
 264              		@ args = 0, pretend = 0, frame = 0
 265              		@ frame_needed = 0, uses_anonymous_args = 0
 266              	.LVL8:
 267 00a8 70B5     		push	{r4, r5, r6, lr}	@
 268              	.LCFI1:
 269              		.cfi_def_cfa_offset 16
 270              		.cfi_offset 4, -16
 271              		.cfi_offset 5, -12
 272              		.cfi_offset 6, -8
 273              		.cfi_offset 14, -4
 274 00aa 8D18     		adds	r5, r1, r2	@ _16, src, num_bytes
  87:../sdk/nRF5_SDK_12.2.0_f012efa/components/drivers_nrf/hal/nrf_nvmc.c ****     uint32_t i;
  88:../sdk/nRF5_SDK_12.2.0_f012efa/components/drivers_nrf/hal/nrf_nvmc.c ****     for (i=0;i<num_bytes;i++)
 275              		.loc 1 88 0
 276 00ac 0C46     		mov	r4, r1	@ ivtmp.22, src
 277 00ae 461A     		subs	r6, r0, r1	@ tmp152, address, ivtmp.22
 278              	.LVL9:
 279              	.L35:
 280              		.loc 1 88 0 is_stmt 0 discriminator 1
 281 00b0 AC42     		cmp	r4, r5	@ ivtmp.22, _16
 282 00b2 00D1     		bne	.L36	@,
  89:../sdk/nRF5_SDK_12.2.0_f012efa/components/drivers_nrf/hal/nrf_nvmc.c ****     {
  90:../sdk/nRF5_SDK_12.2.0_f012efa/components/drivers_nrf/hal/nrf_nvmc.c ****        nrf_nvmc_write_byte(address + i,src[i]);
  91:../sdk/nRF5_SDK_12.2.0_f012efa/components/drivers_nrf/hal/nrf_nvmc.c ****     }
  92:../sdk/nRF5_SDK_12.2.0_f012efa/components/drivers_nrf/hal/nrf_nvmc.c **** }
 283              		.loc 1 92 0 is_stmt 1
 284 00b4 70BD     		pop	{r4, r5, r6, pc}	@
 285              	.LVL10:
 286              	.L36:
 287 00b6 3019     		adds	r0, r6, r4	@ _20, tmp152, ivtmp.22
  90:../sdk/nRF5_SDK_12.2.0_f012efa/components/drivers_nrf/hal/nrf_nvmc.c ****     }
 288              		.loc 1 90 0 discriminator 3
 289 00b8 14F8011B 		ldrb	r1, [r4], #1	@ zero_extendqisi2	@, MEM[base: _17, offset: 0B]
 290              	.LVL11:
 291 00bc FFF7FEFF 		bl	nrf_nvmc_write_byte	@
 292              	.LVL12:
 293 00c0 F6E7     		b	.L35	@
 294              		.cfi_endproc
 295              	.LFE127:
 296              		.size	nrf_nvmc_write_bytes, .-nrf_nvmc_write_bytes
 297              		.align	1
 298              		.global	nrf_nvmc_write_words
 299              		.syntax unified
 300              		.thumb
 301              		.thumb_func
 302              		.fpu softvfp
 303              		.type	nrf_nvmc_write_words, %function
 304              	nrf_nvmc_write_words:
 305              	.LFB128:
ARM GAS  /var/folders/nl/q97gxh4d5b321tqt4kfb6yzh0000gn/T//ccf5XIzu.s 			page 8


  93:../sdk/nRF5_SDK_12.2.0_f012efa/components/drivers_nrf/hal/nrf_nvmc.c **** 
  94:../sdk/nRF5_SDK_12.2.0_f012efa/components/drivers_nrf/hal/nrf_nvmc.c **** void nrf_nvmc_write_words(uint32_t address, const uint32_t * src, uint32_t num_words)
  95:../sdk/nRF5_SDK_12.2.0_f012efa/components/drivers_nrf/hal/nrf_nvmc.c **** {
 306              		.loc 1 95 0
 307              		.cfi_startproc
 308              		@ args = 0, pretend = 0, frame = 0
 309              		@ frame_needed = 0, uses_anonymous_args = 0
 310              	.LVL13:
  96:../sdk/nRF5_SDK_12.2.0_f012efa/components/drivers_nrf/hal/nrf_nvmc.c ****     uint32_t i;
  97:../sdk/nRF5_SDK_12.2.0_f012efa/components/drivers_nrf/hal/nrf_nvmc.c **** 
  98:../sdk/nRF5_SDK_12.2.0_f012efa/components/drivers_nrf/hal/nrf_nvmc.c ****     // Enable write.
  99:../sdk/nRF5_SDK_12.2.0_f012efa/components/drivers_nrf/hal/nrf_nvmc.c ****     NRF_NVMC->CONFIG = NVMC_CONFIG_WEN_Wen;
 311              		.loc 1 99 0
 312 00c2 104B     		ldr	r3, .L49	@ tmp153,
  95:../sdk/nRF5_SDK_12.2.0_f012efa/components/drivers_nrf/hal/nrf_nvmc.c ****     uint32_t i;
 313              		.loc 1 95 0
 314 00c4 10B5     		push	{r4, lr}	@
 315              	.LCFI2:
 316              		.cfi_def_cfa_offset 8
 317              		.cfi_offset 4, -8
 318              		.cfi_offset 14, -4
 319              		.loc 1 99 0
 320 00c6 0124     		movs	r4, #1	@ tmp154,
 321 00c8 C3F80445 		str	r4, [r3, #1284]	@ tmp154, MEM[(struct NRF_NVMC_Type *)1073864704B].CONFIG
 322              	.L38:
 100:../sdk/nRF5_SDK_12.2.0_f012efa/components/drivers_nrf/hal/nrf_nvmc.c ****     while (NRF_NVMC->READY == NVMC_READY_READY_Busy)
 323              		.loc 1 100 0 discriminator 1
 324 00cc D3F80044 		ldr	r4, [r3, #1024]	@ _5, MEM[(struct NRF_NVMC_Type *)1073864704B].READY
 325 00d0 002C     		cmp	r4, #0	@ _5
 326 00d2 FBD0     		beq	.L38	@
 327 00d4 0B4B     		ldr	r3, .L49	@ tmp162,
 328 00d6 0439     		subs	r1, r1, #4	@ ivtmp.31, src,
 329              	.LVL14:
 330 00d8 00EB8202 		add	r2, r0, r2, lsl #2	@ _27, address, num_words,
 331              	.LVL15:
 332              	.L39:
 101:../sdk/nRF5_SDK_12.2.0_f012efa/components/drivers_nrf/hal/nrf_nvmc.c ****     {
 102:../sdk/nRF5_SDK_12.2.0_f012efa/components/drivers_nrf/hal/nrf_nvmc.c ****     }
 103:../sdk/nRF5_SDK_12.2.0_f012efa/components/drivers_nrf/hal/nrf_nvmc.c **** 
 104:../sdk/nRF5_SDK_12.2.0_f012efa/components/drivers_nrf/hal/nrf_nvmc.c ****     for (i=0;i<num_words;i++)
 333              		.loc 1 104 0 discriminator 1
 334 00dc 9042     		cmp	r0, r2	@ ivtmp.35, _27
 335 00de 07D1     		bne	.L41	@,
 105:../sdk/nRF5_SDK_12.2.0_f012efa/components/drivers_nrf/hal/nrf_nvmc.c ****     {
 106:../sdk/nRF5_SDK_12.2.0_f012efa/components/drivers_nrf/hal/nrf_nvmc.c ****         ((uint32_t*)address)[i] = src[i];
 107:../sdk/nRF5_SDK_12.2.0_f012efa/components/drivers_nrf/hal/nrf_nvmc.c ****         while (NRF_NVMC->READY == NVMC_READY_READY_Busy)
 108:../sdk/nRF5_SDK_12.2.0_f012efa/components/drivers_nrf/hal/nrf_nvmc.c ****         {
 109:../sdk/nRF5_SDK_12.2.0_f012efa/components/drivers_nrf/hal/nrf_nvmc.c ****         }
 110:../sdk/nRF5_SDK_12.2.0_f012efa/components/drivers_nrf/hal/nrf_nvmc.c ****     }
 111:../sdk/nRF5_SDK_12.2.0_f012efa/components/drivers_nrf/hal/nrf_nvmc.c **** 
 112:../sdk/nRF5_SDK_12.2.0_f012efa/components/drivers_nrf/hal/nrf_nvmc.c ****     NRF_NVMC->CONFIG = NVMC_CONFIG_WEN_Ren;
 336              		.loc 1 112 0
 337 00e0 0022     		movs	r2, #0	@ tmp159,
 338 00e2 C3F80425 		str	r2, [r3, #1284]	@ tmp159, MEM[(struct NRF_NVMC_Type *)1073864704B].CONFIG
 339              	.L42:
 113:../sdk/nRF5_SDK_12.2.0_f012efa/components/drivers_nrf/hal/nrf_nvmc.c ****     while (NRF_NVMC->READY == NVMC_READY_READY_Busy)
 340              		.loc 1 113 0 discriminator 1
ARM GAS  /var/folders/nl/q97gxh4d5b321tqt4kfb6yzh0000gn/T//ccf5XIzu.s 			page 9


 341 00e6 D3F80024 		ldr	r2, [r3, #1024]	@ _19, MEM[(struct NRF_NVMC_Type *)1073864704B].READY
 342 00ea 002A     		cmp	r2, #0	@ _19
 343 00ec FBD0     		beq	.L42	@
 114:../sdk/nRF5_SDK_12.2.0_f012efa/components/drivers_nrf/hal/nrf_nvmc.c ****     {
 115:../sdk/nRF5_SDK_12.2.0_f012efa/components/drivers_nrf/hal/nrf_nvmc.c ****     }
 116:../sdk/nRF5_SDK_12.2.0_f012efa/components/drivers_nrf/hal/nrf_nvmc.c **** }
 344              		.loc 1 116 0
 345 00ee 10BD     		pop	{r4, pc}	@
 346              	.L41:
 106:../sdk/nRF5_SDK_12.2.0_f012efa/components/drivers_nrf/hal/nrf_nvmc.c ****         while (NRF_NVMC->READY == NVMC_READY_READY_Busy)
 347              		.loc 1 106 0
 348 00f0 51F8044F 		ldr	r4, [r1, #4]!	@ _14, MEM[base: _28, offset: 0B]
 349 00f4 40F8044B 		str	r4, [r0], #4	@ _14, MEM[base: 0B, index: ivtmp.35_23, offset: 0B]
 350              	.L40:
 107:../sdk/nRF5_SDK_12.2.0_f012efa/components/drivers_nrf/hal/nrf_nvmc.c ****         {
 351              		.loc 1 107 0 discriminator 1
 352 00f8 D3F80044 		ldr	r4, [r3, #1024]	@ _16, MEM[(struct NRF_NVMC_Type *)1073864704B].READY
 353 00fc 002C     		cmp	r4, #0	@ _16
 354 00fe FBD0     		beq	.L40	@
 355 0100 ECE7     		b	.L39	@
 356              	.L50:
 357 0102 00BF     		.align	2
 358              	.L49:
 359 0104 00E00140 		.word	1073864704
 360              		.cfi_endproc
 361              	.LFE128:
 362              		.size	nrf_nvmc_write_words, .-nrf_nvmc_write_words
 363              	.Letext0:
 364              		.file 2 "/Users/lukashann/Documents/Imperial College London/Year 3/Project/fNIRS-Musketeers/nrf52/
 365              		.file 3 "/Users/lukashann/Documents/Imperial College London/Year 3/Project/fNIRS-Musketeers/nrf52/
 366              		.file 4 "../sdk/nRF5_SDK_12.2.0_f012efa/components/toolchain/cmsis/include/core_cm4.h"
 367              		.file 5 "../sdk/nRF5_SDK_12.2.0_f012efa/components/toolchain/system_nrf52.h"
 368              		.file 6 "../sdk/nRF5_SDK_12.2.0_f012efa/components/device/nrf52.h"