ARM GAS  /var/folders/nl/q97gxh4d5b321tqt4kfb6yzh0000gn/T//ccjiv1qf.s 			page 1


   1              		.cpu cortex-m4
   2              		.eabi_attribute 20, 1	@ Tag_ABI_FP_denormal
   3              		.eabi_attribute 21, 1	@ Tag_ABI_FP_exceptions
   4              		.eabi_attribute 23, 3	@ Tag_ABI_FP_number_model
   5              		.eabi_attribute 24, 1	@ Tag_ABI_align8_needed
   6              		.eabi_attribute 25, 1	@ Tag_ABI_align8_preserved
   7              		.eabi_attribute 26, 1	@ Tag_ABI_enum_size
   8              		.eabi_attribute 30, 4	@ Tag_ABI_optimization_goals
   9              		.eabi_attribute 34, 1	@ Tag_CPU_unaligned_access
  10              		.eabi_attribute 18, 4	@ Tag_ABI_PCS_wchar_t
  11              		.file	"nrf_ecb.c"
  12              	@ GNU C11 (GNU Tools for ARM Embedded Processors) version 6.2.1 20161205 (release) [ARM/embedded-6-
  13              	@	compiled by GNU C version 5.4.0, GMP version 6.1.0, MPFR version 3.1.4, MPC version 1.0.3, isl ve
  14              	@ GGC heuristics: --param ggc-min-expand=100 --param ggc-min-heapsize=131072
  15              	@ options passed:  -I . -I include/ -I cfg/
  16              	@ -I ../sdk/nRF5_SDK_12.2.0_f012efa/components/toolchain
  17              	@ -I ../sdk/nRF5_SDK_12.2.0_f012efa/components/toolchain/arm
  18              	@ -I ../sdk/nRF5_SDK_12.2.0_f012efa/components/toolchain/gcc
  19              	@ -I ../sdk/nRF5_SDK_12.2.0_f012efa/components/device
  20              	@ -I ../sdk/nRF5_SDK_12.2.0_f012efa/components/toolchain/cmsis/include
  21              	@ -I ../sdk/nRF5_SDK_12.2.0_f012efa/components/libraries/log
  22              	@ -I ../sdk/nRF5_SDK_12.2.0_f012efa/components/libraries/log/src
  23              	@ -I ../sdk/nRF5_SDK_12.2.0_f012efa/components/drivers_nrf/nrf_soc_nosd
  24              	@ -I ../sdk/nRF5_SDK_12.2.0_f012efa/components/drivers_nrf/hal
  25              	@ -I ../sdk/nRF5_SDK_12.2.0_f012efa/components/drivers_nrf/common
  26              	@ -I ../sdk/nRF5_SDK_12.2.0_f012efa/components/libraries/util
  27              	@ -imultilib thumb/v7e-m
  28              	@ -iprefix /Users/lukashann/Documents/Imperial College London/Year 3/Project/fNIRS-Musketeers/nrf52
  29              	@ -isysroot /Users/lukashann/Documents/Imperial College London/Year 3/Project/fNIRS-Musketeers/nrf5
  30              	@ -MD ../sdk/nRF5_SDK_12.2.0_f012efa/components/drivers_nrf/hal/nrf_ecb.d
  31              	@ -MF .depnrf_ecb.o.d -MP
  32              	@ -MQ ../sdk/nRF5_SDK_12.2.0_f012efa/components/drivers_nrf/hal/nrf_ecb.o
  33              	@ -D__USES_INITFINI__ -D NRF52
  34              	@ ../sdk/nRF5_SDK_12.2.0_f012efa/components/drivers_nrf/hal/nrf_ecb.c
  35              	@ -mcpu=cortex-m4 -mthumb
  36              	@ -auxbase-strip ../sdk/nRF5_SDK_12.2.0_f012efa/components/drivers_nrf/hal/nrf_ecb.o
  37              	@ -gdwarf-2 -Os -Wall -Wstrict-prototypes -fomit-frame-pointer
  38              	@ -fverbose-asm
  39              	@ options enabled:  -faggressive-loop-optimizations -falign-jumps
  40              	@ -falign-labels -falign-loops -fauto-inc-dec -fbranch-count-reg
  41              	@ -fcaller-saves -fchkp-check-incomplete-type -fchkp-check-read
  42              	@ -fchkp-check-write -fchkp-instrument-calls -fchkp-narrow-bounds
  43              	@ -fchkp-optimize -fchkp-store-bounds -fchkp-use-static-bounds
  44              	@ -fchkp-use-static-const-bounds -fchkp-use-wrappers
  45              	@ -fcombine-stack-adjustments -fcommon -fcompare-elim -fcprop-registers
  46              	@ -fcrossjumping -fcse-follow-jumps -fdefer-pop
  47              	@ -fdelete-null-pointer-checks -fdevirtualize -fdevirtualize-speculatively
  48              	@ -fdwarf2-cfi-asm -fearly-inlining -feliminate-unused-debug-types
  49              	@ -fexpensive-optimizations -fforward-propagate -ffunction-cse -fgcse
  50              	@ -fgcse-lm -fgnu-runtime -fgnu-unique -fguess-branch-probability
  51              	@ -fhoist-adjacent-loads -fident -fif-conversion -fif-conversion2
  52              	@ -findirect-inlining -finline -finline-atomics -finline-functions
  53              	@ -finline-functions-called-once -finline-small-functions -fipa-cp
  54              	@ -fipa-cp-alignment -fipa-icf -fipa-icf-functions -fipa-icf-variables
  55              	@ -fipa-profile -fipa-pure-const -fipa-ra -fipa-reference -fipa-sra
  56              	@ -fira-hoist-pressure -fira-share-save-slots -fira-share-spill-slots
  57              	@ -fisolate-erroneous-paths-dereference -fivopts -fkeep-static-consts
ARM GAS  /var/folders/nl/q97gxh4d5b321tqt4kfb6yzh0000gn/T//ccjiv1qf.s 			page 2


  58              	@ -fleading-underscore -flifetime-dse -flra-remat -flto-odr-type-merging
  59              	@ -fmath-errno -fmerge-constants -fmerge-debug-strings
  60              	@ -fmove-loop-invariants -fomit-frame-pointer -foptimize-sibling-calls
  61              	@ -fpartial-inlining -fpeephole -fpeephole2 -fplt -fprefetch-loop-arrays
  62              	@ -freg-struct-return -freorder-blocks -freorder-functions
  63              	@ -frerun-cse-after-loop -fsched-critical-path-heuristic
  64              	@ -fsched-dep-count-heuristic -fsched-group-heuristic -fsched-interblock
  65              	@ -fsched-last-insn-heuristic -fsched-pressure -fsched-rank-heuristic
  66              	@ -fsched-spec -fsched-spec-insn-heuristic -fsched-stalled-insns-dep
  67              	@ -fschedule-insns2 -fsection-anchors -fsemantic-interposition
  68              	@ -fshow-column -fsigned-zeros -fsplit-ivs-in-unroller -fsplit-wide-types
  69              	@ -fssa-backprop -fssa-phiopt -fstdarg-opt -fstrict-aliasing
  70              	@ -fstrict-overflow -fstrict-volatile-bitfields -fsync-libcalls
  71              	@ -fthread-jumps -ftoplevel-reorder -ftrapping-math -ftree-bit-ccp
  72              	@ -ftree-builtin-call-dce -ftree-ccp -ftree-ch -ftree-coalesce-vars
  73              	@ -ftree-copy-prop -ftree-cselim -ftree-dce -ftree-dominator-opts
  74              	@ -ftree-dse -ftree-forwprop -ftree-fre -ftree-loop-if-convert
  75              	@ -ftree-loop-im -ftree-loop-ivcanon -ftree-loop-optimize
  76              	@ -ftree-parallelize-loops= -ftree-phiprop -ftree-pre -ftree-pta
  77              	@ -ftree-reassoc -ftree-scev-cprop -ftree-sink -ftree-slsr -ftree-sra
  78              	@ -ftree-switch-conversion -ftree-tail-merge -ftree-ter -ftree-vrp
  79              	@ -funit-at-a-time -fvar-tracking -fvar-tracking-assignments -fverbose-asm
  80              	@ -fzero-initialized-in-bss -masm-syntax-unified -mlittle-endian
  81              	@ -mpic-data-is-text-relative -msched-prolog -mthumb -munaligned-access
  82              	@ -mvectorize-with-neon-quad
  83              	
  84              		.text
  85              	.Ltext0:
  86              		.cfi_sections	.debug_frame
  87              		.align	1
  88              		.global	nrf_ecb_init
  89              		.syntax unified
  90              		.thumb
  91              		.thumb_func
  92              		.fpu softvfp
  93              		.type	nrf_ecb_init, %function
  94              	nrf_ecb_init:
  95              	.LFB124:
  96              		.file 1 "../sdk/nRF5_SDK_12.2.0_f012efa/components/drivers_nrf/hal/nrf_ecb.c"
   1:../sdk/nRF5_SDK_12.2.0_f012efa/components/drivers_nrf/hal/nrf_ecb.c **** /* Copyright (c) 2012 Nordic Semiconductor. All Rights Reserved.
   2:../sdk/nRF5_SDK_12.2.0_f012efa/components/drivers_nrf/hal/nrf_ecb.c **** *
   3:../sdk/nRF5_SDK_12.2.0_f012efa/components/drivers_nrf/hal/nrf_ecb.c **** * The information contained herein is property of Nordic Semiconductor ASA.
   4:../sdk/nRF5_SDK_12.2.0_f012efa/components/drivers_nrf/hal/nrf_ecb.c **** * Terms and conditions of usage are described in detail in NORDIC
   5:../sdk/nRF5_SDK_12.2.0_f012efa/components/drivers_nrf/hal/nrf_ecb.c **** * SEMICONDUCTOR STANDARD SOFTWARE LICENSE AGREEMENT.
   6:../sdk/nRF5_SDK_12.2.0_f012efa/components/drivers_nrf/hal/nrf_ecb.c **** *
   7:../sdk/nRF5_SDK_12.2.0_f012efa/components/drivers_nrf/hal/nrf_ecb.c **** * Licensees are granted free, non-transferable use of the information. NO
   8:../sdk/nRF5_SDK_12.2.0_f012efa/components/drivers_nrf/hal/nrf_ecb.c **** * WARRANTY of ANY KIND is provided. This heading must NOT be removed from
   9:../sdk/nRF5_SDK_12.2.0_f012efa/components/drivers_nrf/hal/nrf_ecb.c **** * the file.
  10:../sdk/nRF5_SDK_12.2.0_f012efa/components/drivers_nrf/hal/nrf_ecb.c **** *
  11:../sdk/nRF5_SDK_12.2.0_f012efa/components/drivers_nrf/hal/nrf_ecb.c **** * $LastChangedRevision: 25419 $
  12:../sdk/nRF5_SDK_12.2.0_f012efa/components/drivers_nrf/hal/nrf_ecb.c **** */
  13:../sdk/nRF5_SDK_12.2.0_f012efa/components/drivers_nrf/hal/nrf_ecb.c **** 
  14:../sdk/nRF5_SDK_12.2.0_f012efa/components/drivers_nrf/hal/nrf_ecb.c **** /**
  15:../sdk/nRF5_SDK_12.2.0_f012efa/components/drivers_nrf/hal/nrf_ecb.c ****  * @file
  16:../sdk/nRF5_SDK_12.2.0_f012efa/components/drivers_nrf/hal/nrf_ecb.c ****  * @brief Implementation of AES ECB driver
  17:../sdk/nRF5_SDK_12.2.0_f012efa/components/drivers_nrf/hal/nrf_ecb.c ****  */
  18:../sdk/nRF5_SDK_12.2.0_f012efa/components/drivers_nrf/hal/nrf_ecb.c **** 
ARM GAS  /var/folders/nl/q97gxh4d5b321tqt4kfb6yzh0000gn/T//ccjiv1qf.s 			page 3


  19:../sdk/nRF5_SDK_12.2.0_f012efa/components/drivers_nrf/hal/nrf_ecb.c **** 
  20:../sdk/nRF5_SDK_12.2.0_f012efa/components/drivers_nrf/hal/nrf_ecb.c **** //lint -e438
  21:../sdk/nRF5_SDK_12.2.0_f012efa/components/drivers_nrf/hal/nrf_ecb.c **** 
  22:../sdk/nRF5_SDK_12.2.0_f012efa/components/drivers_nrf/hal/nrf_ecb.c **** #include <stdlib.h>
  23:../sdk/nRF5_SDK_12.2.0_f012efa/components/drivers_nrf/hal/nrf_ecb.c **** #include <stdbool.h>
  24:../sdk/nRF5_SDK_12.2.0_f012efa/components/drivers_nrf/hal/nrf_ecb.c **** #include <string.h>
  25:../sdk/nRF5_SDK_12.2.0_f012efa/components/drivers_nrf/hal/nrf_ecb.c **** #include "nrf.h"
  26:../sdk/nRF5_SDK_12.2.0_f012efa/components/drivers_nrf/hal/nrf_ecb.c **** #include "nrf_ecb.h"
  27:../sdk/nRF5_SDK_12.2.0_f012efa/components/drivers_nrf/hal/nrf_ecb.c **** 
  28:../sdk/nRF5_SDK_12.2.0_f012efa/components/drivers_nrf/hal/nrf_ecb.c **** static uint8_t  ecb_data[48];   ///< ECB data structure for RNG peripheral to access.
  29:../sdk/nRF5_SDK_12.2.0_f012efa/components/drivers_nrf/hal/nrf_ecb.c **** static uint8_t* ecb_key;        ///< Key:        Starts at ecb_data
  30:../sdk/nRF5_SDK_12.2.0_f012efa/components/drivers_nrf/hal/nrf_ecb.c **** static uint8_t* ecb_cleartext;  ///< Cleartext:  Starts at ecb_data + 16 bytes.
  31:../sdk/nRF5_SDK_12.2.0_f012efa/components/drivers_nrf/hal/nrf_ecb.c **** static uint8_t* ecb_ciphertext; ///< Ciphertext: Starts at ecb_data + 32 bytes.
  32:../sdk/nRF5_SDK_12.2.0_f012efa/components/drivers_nrf/hal/nrf_ecb.c **** 
  33:../sdk/nRF5_SDK_12.2.0_f012efa/components/drivers_nrf/hal/nrf_ecb.c **** bool nrf_ecb_init(void)
  34:../sdk/nRF5_SDK_12.2.0_f012efa/components/drivers_nrf/hal/nrf_ecb.c **** {
  97              		.loc 1 34 0
  98              		.cfi_startproc
  99              		@ args = 0, pretend = 0, frame = 0
 100              		@ frame_needed = 0, uses_anonymous_args = 0
 101              		@ link register save eliminated.
  35:../sdk/nRF5_SDK_12.2.0_f012efa/components/drivers_nrf/hal/nrf_ecb.c ****   ecb_key = ecb_data;
 102              		.loc 1 35 0
 103 0000 064B     		ldr	r3, .L2	@ tmp112,
 104 0002 1A46     		mov	r2, r3	@ tmp117, tmp112
 105 0004 191D     		adds	r1, r3, #4	@ tmp114, tmp112,
 106 0006 42F8141B 		str	r1, [r2], #20	@ tmp114, ecb_key
  36:../sdk/nRF5_SDK_12.2.0_f012efa/components/drivers_nrf/hal/nrf_ecb.c ****   ecb_cleartext  = ecb_data + 16;
 107              		.loc 1 36 0
 108 000a 5A63     		str	r2, [r3, #52]	@ tmp117, ecb_cleartext
  37:../sdk/nRF5_SDK_12.2.0_f012efa/components/drivers_nrf/hal/nrf_ecb.c ****   ecb_ciphertext = ecb_data + 32;
 109              		.loc 1 37 0
 110 000c 03F12402 		add	r2, r3, #36	@ tmp121, tmp112,
 111 0010 9A63     		str	r2, [r3, #56]	@ tmp121, ecb_ciphertext
  38:../sdk/nRF5_SDK_12.2.0_f012efa/components/drivers_nrf/hal/nrf_ecb.c **** 
  39:../sdk/nRF5_SDK_12.2.0_f012efa/components/drivers_nrf/hal/nrf_ecb.c ****   NRF_ECB->ECBDATAPTR = (uint32_t)ecb_data;
 112              		.loc 1 39 0
 113 0012 034B     		ldr	r3, .L2+4	@ tmp124,
  40:../sdk/nRF5_SDK_12.2.0_f012efa/components/drivers_nrf/hal/nrf_ecb.c ****   return true;
  41:../sdk/nRF5_SDK_12.2.0_f012efa/components/drivers_nrf/hal/nrf_ecb.c **** }
 114              		.loc 1 41 0
 115 0014 0120     		movs	r0, #1	@,
  39:../sdk/nRF5_SDK_12.2.0_f012efa/components/drivers_nrf/hal/nrf_ecb.c ****   return true;
 116              		.loc 1 39 0
 117 0016 C3F80415 		str	r1, [r3, #1284]	@ tmp114, MEM[(struct NRF_ECB_Type *)1073799168B].ECBDATAPTR
 118              		.loc 1 41 0
 119 001a 7047     		bx	lr	@
 120              	.L3:
 121              		.align	2
 122              	.L2:
 123 001c 00000000 		.word	.LANCHOR0
 124 0020 00E00040 		.word	1073799168
 125              		.cfi_endproc
 126              	.LFE124:
 127              		.size	nrf_ecb_init, .-nrf_ecb_init
 128              		.align	1
 129              		.global	nrf_ecb_crypt
ARM GAS  /var/folders/nl/q97gxh4d5b321tqt4kfb6yzh0000gn/T//ccjiv1qf.s 			page 4


 130              		.syntax unified
 131              		.thumb
 132              		.thumb_func
 133              		.fpu softvfp
 134              		.type	nrf_ecb_crypt, %function
 135              	nrf_ecb_crypt:
 136              	.LFB125:
  42:../sdk/nRF5_SDK_12.2.0_f012efa/components/drivers_nrf/hal/nrf_ecb.c **** 
  43:../sdk/nRF5_SDK_12.2.0_f012efa/components/drivers_nrf/hal/nrf_ecb.c **** 
  44:../sdk/nRF5_SDK_12.2.0_f012efa/components/drivers_nrf/hal/nrf_ecb.c **** bool nrf_ecb_crypt(uint8_t * dest_buf, const uint8_t * src_buf)
  45:../sdk/nRF5_SDK_12.2.0_f012efa/components/drivers_nrf/hal/nrf_ecb.c **** {
 137              		.loc 1 45 0
 138              		.cfi_startproc
 139              		@ args = 0, pretend = 0, frame = 0
 140              		@ frame_needed = 0, uses_anonymous_args = 0
 141              	.LVL0:
 142 0024 30B5     		push	{r4, r5, lr}	@
 143              	.LCFI0:
 144              		.cfi_def_cfa_offset 12
 145              		.cfi_offset 4, -12
 146              		.cfi_offset 5, -8
 147              		.cfi_offset 14, -4
  46:../sdk/nRF5_SDK_12.2.0_f012efa/components/drivers_nrf/hal/nrf_ecb.c ****    uint32_t counter = 0x1000000;
  47:../sdk/nRF5_SDK_12.2.0_f012efa/components/drivers_nrf/hal/nrf_ecb.c ****    if (src_buf != ecb_cleartext)
 148              		.loc 1 47 0
 149 0026 154C     		ldr	r4, .L16	@ tmp117,
 150 0028 636B     		ldr	r3, [r4, #52]	@ ecb_cleartext.1_6, ecb_cleartext
 151 002a 8B42     		cmp	r3, r1	@ ecb_cleartext.1_6, src_buf
 152 002c 07D0     		beq	.L5	@,
  48:../sdk/nRF5_SDK_12.2.0_f012efa/components/drivers_nrf/hal/nrf_ecb.c ****    {
  49:../sdk/nRF5_SDK_12.2.0_f012efa/components/drivers_nrf/hal/nrf_ecb.c ****      memcpy(ecb_cleartext,src_buf,16);
 153              		.loc 1 49 0
 154 002e 01F11002 		add	r2, r1, #16	@ tmp120, src_buf,
 155              	.LVL1:
 156              	.L6:
 157 0032 51F8045B 		ldr	r5, [r1], #4	@ unaligned	@ tmp121,
 158 0036 43F8045B 		str	r5, [r3], #4	@ unaligned	@ tmp121,
 159 003a 9142     		cmp	r1, r2	@ src_buf, tmp120
 160 003c F9D1     		bne	.L6	@,
 161              	.LVL2:
 162              	.L5:
  50:../sdk/nRF5_SDK_12.2.0_f012efa/components/drivers_nrf/hal/nrf_ecb.c ****    }
  51:../sdk/nRF5_SDK_12.2.0_f012efa/components/drivers_nrf/hal/nrf_ecb.c ****    NRF_ECB->EVENTS_ENDECB = 0;
 163              		.loc 1 51 0
 164 003e 104A     		ldr	r2, .L16+4	@ tmp125,
 165 0040 0023     		movs	r3, #0	@ tmp126,
 166 0042 C2F80031 		str	r3, [r2, #256]	@ tmp126, MEM[(struct NRF_ECB_Type *)1073799168B].EVENTS_ENDECB
  52:../sdk/nRF5_SDK_12.2.0_f012efa/components/drivers_nrf/hal/nrf_ecb.c ****    NRF_ECB->TASKS_STARTECB = 1;
 167              		.loc 1 52 0
 168 0046 0123     		movs	r3, #1	@ tmp128,
 169 0048 1360     		str	r3, [r2]	@ tmp128, MEM[(struct NRF_ECB_Type *)1073799168B].TASKS_STARTECB
  53:../sdk/nRF5_SDK_12.2.0_f012efa/components/drivers_nrf/hal/nrf_ecb.c ****    while (NRF_ECB->EVENTS_ENDECB == 0)
 170              		.loc 1 53 0
 171 004a 4FF08073 		mov	r3, #16777216	@ ivtmp_20,
 172              	.LVL3:
 173              	.L7:
 174 004e D2F80011 		ldr	r1, [r2, #256]	@ _11, MEM[(struct NRF_ECB_Type *)1073799168B].EVENTS_ENDECB
ARM GAS  /var/folders/nl/q97gxh4d5b321tqt4kfb6yzh0000gn/T//ccjiv1qf.s 			page 5


 175 0052 79B1     		cbz	r1, .L9	@ _11,
  54:../sdk/nRF5_SDK_12.2.0_f012efa/components/drivers_nrf/hal/nrf_ecb.c ****    {
  55:../sdk/nRF5_SDK_12.2.0_f012efa/components/drivers_nrf/hal/nrf_ecb.c ****     counter--;
  56:../sdk/nRF5_SDK_12.2.0_f012efa/components/drivers_nrf/hal/nrf_ecb.c ****     if (counter == 0)
  57:../sdk/nRF5_SDK_12.2.0_f012efa/components/drivers_nrf/hal/nrf_ecb.c ****     {
  58:../sdk/nRF5_SDK_12.2.0_f012efa/components/drivers_nrf/hal/nrf_ecb.c ****       return false;
  59:../sdk/nRF5_SDK_12.2.0_f012efa/components/drivers_nrf/hal/nrf_ecb.c ****     }
  60:../sdk/nRF5_SDK_12.2.0_f012efa/components/drivers_nrf/hal/nrf_ecb.c ****    }
  61:../sdk/nRF5_SDK_12.2.0_f012efa/components/drivers_nrf/hal/nrf_ecb.c ****    NRF_ECB->EVENTS_ENDECB = 0;
 176              		.loc 1 61 0
 177 0054 0023     		movs	r3, #0	@ tmp131,
 178              	.LVL4:
 179 0056 C2F80031 		str	r3, [r2, #256]	@ tmp131, MEM[(struct NRF_ECB_Type *)1073799168B].EVENTS_ENDECB
  62:../sdk/nRF5_SDK_12.2.0_f012efa/components/drivers_nrf/hal/nrf_ecb.c ****    if (dest_buf != ecb_ciphertext)
 180              		.loc 1 62 0
 181 005a A36B     		ldr	r3, [r4, #56]	@ ecb_ciphertext.2_14, ecb_ciphertext
 182 005c 8342     		cmp	r3, r0	@ ecb_ciphertext.2_14, dest_buf
 183 005e 07D0     		beq	.L12	@,
  63:../sdk/nRF5_SDK_12.2.0_f012efa/components/drivers_nrf/hal/nrf_ecb.c ****    {
  64:../sdk/nRF5_SDK_12.2.0_f012efa/components/drivers_nrf/hal/nrf_ecb.c ****      memcpy(dest_buf,ecb_ciphertext,16);
 184              		.loc 1 64 0
 185 0060 03F11002 		add	r2, r3, #16	@ tmp135, ecb_ciphertext.2_14,
 186              	.LVL5:
 187              	.L10:
 188 0064 53F8041B 		ldr	r1, [r3], #4	@ unaligned	@ tmp136,
 189 0068 40F8041B 		str	r1, [r0], #4	@ unaligned	@ tmp136,
 190 006c 9342     		cmp	r3, r2	@ ecb_ciphertext.2_14, tmp135
 191 006e F9D1     		bne	.L10	@,
 192              	.L12:
  65:../sdk/nRF5_SDK_12.2.0_f012efa/components/drivers_nrf/hal/nrf_ecb.c ****    }
  66:../sdk/nRF5_SDK_12.2.0_f012efa/components/drivers_nrf/hal/nrf_ecb.c ****    return true;
 193              		.loc 1 66 0
 194 0070 0120     		movs	r0, #1	@ <retval>,
  67:../sdk/nRF5_SDK_12.2.0_f012efa/components/drivers_nrf/hal/nrf_ecb.c **** }
 195              		.loc 1 67 0
 196 0072 30BD     		pop	{r4, r5, pc}	@
 197              	.LVL6:
 198              	.L9:
  56:../sdk/nRF5_SDK_12.2.0_f012efa/components/drivers_nrf/hal/nrf_ecb.c ****     {
 199              		.loc 1 56 0
 200 0074 013B     		subs	r3, r3, #1	@ ivtmp_20, ivtmp_20,
 201              	.LVL7:
 202 0076 EAD1     		bne	.L7	@,
  58:../sdk/nRF5_SDK_12.2.0_f012efa/components/drivers_nrf/hal/nrf_ecb.c ****     }
 203              		.loc 1 58 0
 204 0078 1846     		mov	r0, r3	@ <retval>, ivtmp_20
 205              	.LVL8:
 206 007a 30BD     		pop	{r4, r5, pc}	@
 207              	.L17:
 208              		.align	2
 209              	.L16:
 210 007c 00000000 		.word	.LANCHOR0
 211 0080 00E00040 		.word	1073799168
 212              		.cfi_endproc
 213              	.LFE125:
 214              		.size	nrf_ecb_crypt, .-nrf_ecb_crypt
 215              		.align	1
ARM GAS  /var/folders/nl/q97gxh4d5b321tqt4kfb6yzh0000gn/T//ccjiv1qf.s 			page 6


 216              		.global	nrf_ecb_set_key
 217              		.syntax unified
 218              		.thumb
 219              		.thumb_func
 220              		.fpu softvfp
 221              		.type	nrf_ecb_set_key, %function
 222              	nrf_ecb_set_key:
 223              	.LFB126:
  68:../sdk/nRF5_SDK_12.2.0_f012efa/components/drivers_nrf/hal/nrf_ecb.c **** 
  69:../sdk/nRF5_SDK_12.2.0_f012efa/components/drivers_nrf/hal/nrf_ecb.c **** void nrf_ecb_set_key(const uint8_t * key)
  70:../sdk/nRF5_SDK_12.2.0_f012efa/components/drivers_nrf/hal/nrf_ecb.c **** {
 224              		.loc 1 70 0
 225              		.cfi_startproc
 226              		@ args = 0, pretend = 0, frame = 0
 227              		@ frame_needed = 0, uses_anonymous_args = 0
 228              		@ link register save eliminated.
 229              	.LVL9:
  71:../sdk/nRF5_SDK_12.2.0_f012efa/components/drivers_nrf/hal/nrf_ecb.c ****   memcpy(ecb_key,key,16);
 230              		.loc 1 71 0
 231 0084 054B     		ldr	r3, .L21	@ tmp112,
 232 0086 1B68     		ldr	r3, [r3]	@ ecb_key, ecb_key
 233 0088 00F11002 		add	r2, r0, #16	@ tmp116, key,
 234              	.LVL10:
 235              	.L19:
 236 008c 50F8041B 		ldr	r1, [r0], #4	@ unaligned	@ tmp117,
 237 0090 43F8041B 		str	r1, [r3], #4	@ unaligned	@ tmp117,
 238 0094 9042     		cmp	r0, r2	@ key, tmp116
 239 0096 F9D1     		bne	.L19	@,
  72:../sdk/nRF5_SDK_12.2.0_f012efa/components/drivers_nrf/hal/nrf_ecb.c **** }
 240              		.loc 1 72 0
 241 0098 7047     		bx	lr	@
 242              	.L22:
 243 009a 00BF     		.align	2
 244              	.L21:
 245 009c 00000000 		.word	.LANCHOR0
 246              		.cfi_endproc
 247              	.LFE126:
 248              		.size	nrf_ecb_set_key, .-nrf_ecb_set_key
 249              		.bss
 250              		.align	2
 251              		.set	.LANCHOR0,. + 0
 252              		.type	ecb_key, %object
 253              		.size	ecb_key, 4
 254              	ecb_key:
 255 0000 00000000 		.space	4
 256              		.type	ecb_data, %object
 257              		.size	ecb_data, 48
 258              	ecb_data:
 259 0004 00000000 		.space	48
 259      00000000 
 259      00000000 
 259      00000000 
 259      00000000 
 260              		.type	ecb_cleartext, %object
 261              		.size	ecb_cleartext, 4
 262              	ecb_cleartext:
 263 0034 00000000 		.space	4
ARM GAS  /var/folders/nl/q97gxh4d5b321tqt4kfb6yzh0000gn/T//ccjiv1qf.s 			page 7


 264              		.type	ecb_ciphertext, %object
 265              		.size	ecb_ciphertext, 4
 266              	ecb_ciphertext:
 267 0038 00000000 		.space	4
 268              		.text
 269              	.Letext0:
 270              		.file 2 "/Users/lukashann/Documents/Imperial College London/Year 3/Project/fNIRS-Musketeers/nrf52/
 271              		.file 3 "/Users/lukashann/Documents/Imperial College London/Year 3/Project/fNIRS-Musketeers/nrf52/
 272              		.file 4 "/Users/lukashann/Documents/Imperial College London/Year 3/Project/fNIRS-Musketeers/nrf52/
 273              		.file 5 "/Users/lukashann/Documents/Imperial College London/Year 3/Project/fNIRS-Musketeers/nrf52/
 274              		.file 6 "/Users/lukashann/Documents/Imperial College London/Year 3/Project/fNIRS-Musketeers/nrf52/
 275              		.file 7 "/Users/lukashann/Documents/Imperial College London/Year 3/Project/fNIRS-Musketeers/nrf52/
 276              		.file 8 "/Users/lukashann/Documents/Imperial College London/Year 3/Project/fNIRS-Musketeers/nrf52/
 277              		.file 9 "../sdk/nRF5_SDK_12.2.0_f012efa/components/toolchain/cmsis/include/core_cm4.h"
 278              		.file 10 "../sdk/nRF5_SDK_12.2.0_f012efa/components/toolchain/system_nrf52.h"
 279              		.file 11 "../sdk/nRF5_SDK_12.2.0_f012efa/components/device/nrf52.h"