ARM GAS  /var/folders/nl/q97gxh4d5b321tqt4kfb6yzh0000gn/T//ccjiv1qf.s 			page 1


   1              		.cpu cortex-m4
   2              		.eabi_attribute 20, 1	@ Tag_ABI_FP_denormal
   3              		.eabi_attribute 21, 1	@ Tag_ABI_FP_exceptions
   4              		.eabi_attribute 23, 3	@ Tag_ABI_FP_number_model
   5              		.eabi_attribute 24, 1	@ Tag_ABI_align8_needed
   6              		.eabi_attribute 25, 1	@ Tag_ABI_align8_preserved
   7              		.eabi_attribute 26, 1	@ Tag_ABI_enum_size
   8              		.eabi_attribute 30, 4	@ Tag_ABI_optimization_goals
   9              		.eabi_attribute 34, 1	@ Tag_CPU_unaligned_access
  10              		.eabi_attribute 18, 4	@ Tag_ABI_PCS_wchar_t
  11              		.file	"nrf_ecb.c"
  12              	@ GNU C11 (GNU Tools for ARM Embedded Processors) version 6.2.1 20161205 (release) [ARM/embedded-6-
  13              	@	compiled by GNU C version 5.4.0, GMP version 6.1.0, MPFR version 3.1.4, MPC version 1.0.3, isl ve
  14              	@ GGC heuristics: --param ggc-min-expand=100 --param ggc-min-heapsize=131072
  15              	@ options passed:  -I . -I include/ -I cfg/
  16              	@ -I ../sdk/nRF5_SDK_12.2.0_f012efa/components/toolchain
  17              	@ -I ../sdk/nRF5_SDK_12.2.0_f012efa/components/toolchain/arm
  18              	@ -I ../sdk/nRF5_SDK_12.2.0_f012efa/components/toolchain/gcc
  19              	@ -I ../sdk/nRF5_SDK_12.2.0_f012efa/components/device
  20              	@ -I ../sdk/nRF5_SDK_12.2.0_f012efa/components/toolchain/cmsis/include
  21              	@ -I ../sdk/nRF5_SDK_12.2.0_f012efa/components/libraries/log
  22              	@ -I ../sdk/nRF5_SDK_12.2.0_f012efa/components/libraries/log/src
  23              	@ -I ../sdk/nRF5_SDK_12.2.0_f012efa/components/drivers_nrf/nrf_soc_nosd
  24              	@ -I ../sdk/nRF5_SDK_12.2.0_f012efa/components/drivers_nrf/hal
  25              	@ -I ../sdk/nRF5_SDK_12.2.0_f012efa/components/drivers_nrf/common
  26              	@ -I ../sdk/nRF5_SDK_12.2.0_f012efa/components/libraries/util
  27              	@ -imultilib thumb/v7e-m
  28              	@ -iprefix /Users/lukashann/Documents/Imperial College London/Year 3/Project/fNIRS-Musketeers/nrf52
  29              	@ -isysroot /Users/lukashann/Documents/Imperial College London/Year 3/Project/fNIRS-Musketeers/nrf5
  30              	@ -MD ../sdk/nRF5_SDK_12.2.0_f012efa/components/drivers_nrf/hal/nrf_ecb.d
  31              	@ -MF .depnrf_ecb.o.d -MP
  32              	@ -MQ ../sdk/nRF5_SDK_12.2.0_f012efa/components/drivers_nrf/hal/nrf_ecb.o
  33              	@ -D__USES_INITFINI__ -D NRF52
  34              	@ ../sdk/nRF5_SDK_12.2.0_f012efa/components/drivers_nrf/hal/nrf_ecb.c
  35              	@ -mcpu=cortex-m4 -mthumb
  36              	@ -auxbase-strip ../sdk/nRF5_SDK_12.2.0_f012efa/components/drivers_nrf/hal/nrf_ecb.o
  37              	@ -gdwarf-2 -Os -Wall -Wstrict-prototypes -fomit-frame-pointer
  38              	@ -fverbose-asm
  39              	@ options enabled:  -faggressive-loop-optimizations -falign-jumps
  40              	@ -falign-labels -falign-loops -fauto-inc-dec -fbranch-count-reg
  41              	@ -fcaller-saves -fchkp-check-incomplete-type -fchkp-check-read
  42              	@ -fchkp-check-write -fchkp-instrument-calls -fchkp-narrow-bounds
  43              	@ -fchkp-optimize -fchkp-store-bounds -fchkp-use-static-bounds
  44              	@ -fchkp-use-static-const-bounds -fchkp-use-wrappers
  45              	@ -fcombine-stack-adjustments -fcommon -fcompare-elim -fcprop-registers
  46              	@ -fcrossjumping -fcse-follow-jumps -fdefer-pop
  47              	@ -fdelete-null-pointer-checks -fdevirtualize -fdevirtualize-speculatively
  48              	@ -fdwarf2-cfi-asm -fearly-inlining -feliminate-unused-debug-types
  49              	@ -fexpensive-optimizations -fforward-propagate -ffunction-cse -fgcse
  50              	@ -fgcse-lm -fgnu-runtime -fgnu-unique -fguess-branch-probability
  51              	@ -fhoist-adjacent-loads -fident -fif-conversion -fif-conversion2
  52              	@ -findirect-inlining -finline -finline-atomics -finline-functions
  53              	@ -finline-functions-called-once -finline-small-functions -fipa-cp
  54              	@ -fipa-cp-alignment -fipa-icf -fipa-icf-functions -fipa-icf-variables
  55              	@ -fipa-profile -fipa-pure-const -fipa-ra -fipa-reference -fipa-sra
  56              	@ -fira-hoist-pressure -fira-share-save-slots -fira-share-spill-slots
  57              	@ -fisolate-erroneous-paths-dereference -fivopts -fkeep-static-consts
ARM GAS  /var/folders/nl/q97gxh4d5b321tqt4kfb6yzh0000gn/T//ccjiv1qf.s 			page 2


  58              	@ -fleading-underscore -flifetime-dse -flra-remat -flto-odr-type-merging
  59              	@ -fmath-errno -fmerge-constants -fmerge-debug-strings
  60              	@ -fmove-loop-invariants -fomit-frame-pointer -foptimize-sibling-calls
  61              	@ -fpartial-inlining -fpeephole -fpeephole2 -fplt -fprefetch-loop-arrays
  62              	@ -freg-struct-return -freorder-blocks -freorder-functions
  63              	@ -frerun-cse-after-loop -fsched-critical-path-heuristic
  64              	@ -fsched-dep-count-heuristic -fsched-group-heuristic -fsched-interblock
  65              	@ -fsched-last-insn-heuristic -fsched-pressure -fsched-rank-heuristic
  66              	@ -fsched-spec -fsched-spec-insn-heuristic -fsched-stalled-insns-dep
  67              	@ -fschedule-insns2 -fsection-anchors -fsemantic-interposition
  68              	@ -fshow-column -fsigned-zeros -fsplit-ivs-in-unroller -fsplit-wide-types
  69              	@ -fssa-backprop -fssa-phiopt -fstdarg-opt -fstrict-aliasing
  70              	@ -fstrict-overflow -fstrict-volatile-bitfields -fsync-libcalls
  71              	@ -fthread-jumps -ftoplevel-reorder -ftrapping-math -ftree-bit-ccp
  72              	@ -ftree-builtin-call-dce -ftree-ccp -ftree-ch -ftree-coalesce-vars
  73              	@ -ftree-copy-prop -ftree-cselim -ftree-dce -ftree-dominator-opts
  74              	@ -ftree-dse -ftree-forwprop -ftree-fre -ftree-loop-if-convert
  75              	@ -ftree-loop-im -ftree-loop-ivcanon -ftree-loop-optimize
  76              	@ -ftree-parallelize-loops= -ftree-phiprop -ftree-pre -ftree-pta
  77              	@ -ftree-reassoc -ftree-scev-cprop -ftree-sink -ftree-slsr -ftree-sra
  78              	@ -ftree-switch-conversion -ftree-tail-merge -ftree-ter -ftree-vrp
  79              	@ -funit-at-a-time -fvar-tracking -fvar-tracking-assignments -fverbose-asm
  80              	@ -fzero-initialized-in-bss -masm-syntax-unified -mlittle-endian
  81              	@ -mpic-data-is-text-relative -msched-prolog -mthumb -munaligned-access
  82              	@ -mvectorize-with-neon-quad
  83              	
  84              		.text
  85              	.Ltext0:
  86              		.cfi_sections	.debug_frame
  87              		.align	1
  88              		.global	nrf_ecb_init
  89              		.syntax unified
  90              		.thumb
  91              		.thumb_func
  92              		.fpu softvfp
  93              		.type	nrf_ecb_init, %function
  94              	nrf_ecb_init:
  95              	.LFB124:
  96              		.file 1 "../sdk/nRF5_SDK_12.2.0_f012efa/components/drivers_nrf/hal/nrf_ecb.c"
   1:../sdk/nRF5_SDK_12.2.0_f012efa/components/drivers_nrf/hal/nrf_ecb.c **** /* Copyright (c) 2012 Nordic Semiconductor. All Rights Reserved.
   2:../sdk/nRF5_SDK_12.2.0_f012efa/components/drivers_nrf/hal/nrf_ecb.c **** *
   3:../sdk/nRF5_SDK_12.2.0_f012efa/components/drivers_nrf/hal/nrf_ecb.c **** * The information contained herein is property of Nordic Semiconductor ASA.
   4:../sdk/nRF5_SDK_12.2.0_f012efa/components/drivers_nrf/hal/nrf_ecb.c **** * Terms and conditions of usage are described in detail in NORDIC
   5:../sdk/nRF5_SDK_12.2.0_f012efa/components/drivers_nrf/hal/nrf_ecb.c **** * SEMICONDUCTOR STANDARD SOFTWARE LICENSE AGREEMENT.
   6:../sdk/nRF5_SDK_12.2.0_f012efa/components/drivers_nrf/hal/nrf_ecb.c **** *
   7:../sdk/nRF5_SDK_12.2.0_f012efa/components/drivers_nrf/hal/nrf_ecb.c **** * Licensees are granted free, non-transferable use of the information. NO
   8:../sdk/nRF5_SDK_12.2.0_f012efa/components/drivers_nrf/hal/nrf_ecb.c **** * WARRANTY of ANY KIND is provided. This heading must NOT be removed from
   9:../sdk/nRF5_SDK_12.2.0_f012efa/components/drivers_nrf/hal/nrf_ecb.c **** * the file.
  10:../sdk/nRF5_SDK_12.2.0_f012efa/components/drivers_nrf/hal/nrf_ecb.c **** *
  11:../sdk/nRF5_SDK_12.2.0_f012efa/components/drivers_nrf/hal/nrf_ecb.c **** * $LastChangedRevision: 25419 $
  12:../sdk/nRF5_SDK_12.2.0_f012efa/components/drivers_nrf/hal/nrf_ecb.c **** */
  13:../sdk/nRF5_SDK_12.2.0_f012efa/components/drivers_nrf/hal/nrf_ecb.c **** 
  14:../sdk/nRF5_SDK_12.2.0_f012efa/components/drivers_nrf/hal/nrf_ecb.c **** /**
  15:../sdk/nRF5_SDK_12.2.0_f012efa/components/drivers_nrf/hal/nrf_ecb.c ****  * @file
  16:../sdk/nRF5_SDK_12.2.0_f012efa/components/drivers_nrf/hal/nrf_ecb.c ****  * @brief Implementation of AES ECB driver
  17:../sdk/nRF5_SDK_12.2.0_f012efa/components/drivers_nrf/hal/nrf_ecb.c ****  */
  18:../sdk/nRF5_SDK_12.2.0_f012efa/components/drivers_nrf/hal/nrf_ecb.c **** 
ARM GAS  /var/folders/nl/q97gxh4d5b321tqt4kfb6yzh0000gn/T//ccjiv1qf.s 			page 3


  19:../sdk/nRF5_SDK_12.2.0_f012efa/components/drivers_nrf/hal/nrf_ecb.c **** 
  20:../sdk/nRF5_SDK_12.2.0_f012efa/components/drivers_nrf/hal/nrf_ecb.c **** //lint -e438
  21:../sdk/nRF5_SDK_12.2.0_f012efa/components/drivers_nrf/hal/nrf_ecb.c **** 
  22:../sdk/nRF5_SDK_12.2.0_f012efa/components/drivers_nrf/hal/nrf_ecb.c **** #include <stdlib.h>
  23:../sdk/nRF5_SDK_12.2.0_f012efa/components/drivers_nrf/hal/nrf_ecb.c **** #include <stdbool.h>
  24:../sdk/nRF5_SDK_12.2.0_f012efa/components/drivers_nrf/hal/nrf_ecb.c **** #include <string.h>
  25:../sdk/nRF5_SDK_12.2.0_f012efa/components/drivers_nrf/hal/nrf_ecb.c **** #include "nrf.h"
  26:../sdk/nRF5_SDK_12.2.0_f012efa/components/drivers_nrf/hal/nrf_ecb.c **** #include "nrf_ecb.h"
  27:../sdk/nRF5_SDK_12.2.0_f012efa/components/drivers_nrf/hal/nrf_ecb.c **** 
  28:../sdk/nRF5_SDK_12.2.0_f012efa/components/drivers_nrf/hal/nrf_ecb.c **** static uint8_t  ecb_data[48];   ///< ECB data structure for RNG peripheral to access.
  29:../sdk/nRF5_SDK_12.2.0_f012efa/components/drivers_nrf/hal/nrf_ecb.c **** static uint8_t* ecb_key;        ///< Key:        Starts at ecb_data
  30:../sdk/nRF5_SDK_12.2.0_f012efa/components/drivers_nrf/hal/nrf_ecb.c **** static uint8_t* ecb_cleartext;  ///< Cleartext:  Starts at ecb_data + 16 bytes.
  31:../sdk/nRF5_SDK_12.2.0_f012efa/components/drivers_nrf/hal/nrf_ecb.c **** static uint8_t* ecb_ciphertext; ///< Ciphertext: Starts at ecb_data + 32 bytes.
  32:../sdk/nRF5_SDK_12.2.0_f012efa/components/drivers_nrf/hal/nrf_ecb.c **** 
  33:../sdk/nRF5_SDK_12.2.0_f012efa/components/drivers_nrf/hal/nrf_ecb.c **** bool nrf_ecb_init(void)
  34:../sdk/nRF5_SDK_12.2.0_f012efa/components/drivers_nrf/hal/nrf_ecb.c **** {
  97              		.loc 1 34 0
  98              		.cfi_startproc
  99              		@ args = 0, pretend = 0, frame = 0
 100              		@ frame_needed = 0, uses_anonymous_args = 0
 101              		@ link register save eliminated.
  35:../sdk/nRF5_SDK_12.2.0_f012efa/components/drivers_nrf/hal/nrf_ecb.c ****   ecb_key = ecb_data;
 102              		.loc 1 35 0
 103 0000 064B     		ldr	r3, .L2	@ tmp112,
 104 0002 1A46     		mov	r2, r3	@ tmp117, tmp112
 105 0004 191D     		adds	r1, r3, #4	@ tmp114, tmp112,
 106 0006 42F8141B 		str	r1, [r2], #20	@ tmp114, ecb_key
  36:../sdk/nRF5_SDK_12.2.0_f012efa/components/drivers_nrf/hal/nrf_ecb.c ****   ecb_cleartext  = ecb_data + 16;
 107              		.loc 1 36 0
 108 000a 5A63     		str	r2, [r3, #52]	@ tmp117, ecb_cleartext
  37:../sdk/nRF5_SDK_12.2.0_f012efa/components/drivers_nrf/hal/nrf_ecb.c ****   ecb_ciphertext = ecb_data + 32;
 109              		.loc 1 37 0
 110 000c 03F12402 		add	r2, r3, #36	@ tmp121, tmp112,
 111 0010 9A63     		str	r2, [r3, #56]	@ tmp121, ecb_ciphertext
  38:../sdk/nRF5_SDK_12.2.0_f012efa/components/drivers_nrf/hal/nrf_ecb.c **** 
  39:../sdk/nRF5_SDK_12.2.0_f012efa/components/drivers_nrf/hal/nrf_ecb.c ****   NRF_ECB->ECBDATAPTR = (uint32_t)ecb_data;
 112              		.loc 1 39 0
 113 0012 034B     		ldr	r3, .L2+4	@ tmp124,
  40:../sdk/nRF5_SDK_12.2.0_f012efa/components/drivers_nrf/hal/nrf_ecb.c ****   return true;
  41:../sdk/nRF5_SDK_12.2.0_f012efa/components/drivers_nrf/hal/nrf_ecb.c **** }
 114              		.loc 1 41 0
 115 0014 0120     		movs	r0, #1	@,
  39:../sdk/nRF5_SDK_12.2.0_f012efa/components/drivers_nrf/hal/nrf_ecb.c ****   return true;
 116              		.loc 1 39 0
 117 0016 C3F80415 		str	r1, [r3, #1284]	@ tmp114, MEM[(struct NRF_ECB_Type *)1073799168B].ECBDATAPTR
 118              		.loc 1 41 0
 119 001a 7047     		bx	lr	@
 120              	.L3:
 121              		.align	2
 122              	.L2:
 123 001c 00000000 		.word	.LANCHOR0
 124 0020 00E00040 		.word	1073799168
 125              		.cfi_endproc
 126              	.LFE124:
 127              		.size	nrf_ecb_init, .-nrf_ecb_init
 128              		.align	1
 129              		.global	nrf_ecb_crypt
ARM GAS  /var/folders/nl/q97gxh4d5b321tqt4kfb6yzh0000gn/T//ccjiv1qf.s 			page 4


 130              		.syntax unified
 131              		.thumb
 132              		.thumb_func
 133              		.fpu softvfp
 134              		.type	nrf_ecb_crypt, %function
 135              	nrf_ecb_crypt:
 136              	.LFB125:
  42:../sdk/nRF5_SDK_12.2.0_f012efa/components/drivers_nrf/hal/nrf_ecb.c **** 
  43:../sdk/nRF5_SDK_12.2.0_f012efa/components/drivers_nrf/hal/nrf_ecb.c **** 
  44:../sdk/nRF5_SDK_12.2.0_f012efa/components/drivers_nrf/hal/nrf_ecb.c **** bool nrf_ecb_crypt(uint8_t * dest_buf, const uint8_t * src_buf)
  45:../sdk/nRF5_SDK_12.2.0_f012efa/components/drivers_nrf/hal/nrf_ecb.c **** {
 137              		.loc 1 45 0
 138              		.cfi_startproc
 139              		@ args = 0, pretend = 0, frame = 0
 140              		@ frame_needed = 0, uses_anonymous_args = 0
 141              	.LVL0:
 142 0024 30B5     		push	{r4, r5, lr}	@
 143              	.LCFI0:
 144              		.cfi_def_cfa_offset 12
 145              		.cfi_offset 4, -12
 146              		.cfi_offset 5, -8
 147              		.cfi_offset 14, -4
  46:../sdk/nRF5_SDK_12.2.0_f012efa/components/drivers_nrf/hal/nrf_ecb.c ****    uint32_t counter = 0x1000000;
  47:../sdk/nRF5_SDK_12.2.0_f012efa/components/drivers_nrf/hal/nrf_ecb.c ****    if (src_buf != ecb_cleartext)
 148              		.loc 1 47 0
 149 0026 154C     		ldr	r4, .L16	@ tmp117,
 150 0028 636B     		ldr	r3, [r4, #52]	@ ecb_cleartext.1_6, ecb_cleartext
 151 002a 8B42     		cmp	r3, r1	@ ecb_cleartext.1_6, src_buf
 152 002c 07D0     		beq	.L5	@,
  48:../sdk/nRF5_SDK_12.2.0_f012efa/components/drivers_nrf/hal/nrf_ecb.c ****    {
  49:../sdk/nRF5_SDK_12.2.0_f012efa/components/drivers_nrf/hal/nrf_ecb.c ****      memcpy(ecb_cleartext,src_buf,16);
 153              		.loc 1 49 0
 154 002e 01F11002 		add	r2, r1, #16	@ tmp120, src_buf,
 155              	.LVL1:
 156              	.L6:
 157 0032 51F8045B 		ldr	r5, [r1], #4	@ unaligned	@ tmp121,
 158 0036 43F8045B 		str	r5, [r3], #4	@ unaligned	@ tmp121,
 159 003a 9142     		cmp	r1, r2	@ src_buf, tmp120
 160 003c F9D1     		bne	.L6	@,
 161              	.LVL2:
 162              	.L5:
  50:../sdk/nRF5_SDK_12.2.0_f012efa/components/drivers_nrf/hal/nrf_ecb.c ****    }
  51:../sdk/nRF5_SDK_12.2.0_f012efa/components/drivers_nrf/hal/nrf_ecb.c ****    NRF_ECB->EVENTS_ENDECB = 0;
 163              		.loc 1 51 0
 164 003e 104A     		ldr	r2, .L16+4	@ tmp125,
 165 0040 0023     		movs	r3, #0	@ tmp126,
 166 0042 C2F80031 		str	r3, [r2, #256]	@ tmp126, MEM[(struct NRF_ECB_Type *)1073799168B].EVENTS_ENDECB
  52:../sdk/nRF5_SDK_12.2.0_f012efa/components/drivers_nrf/hal/nrf_ecb.c ****    NRF_ECB->TASKS_STARTECB = 1;
 167              		.loc 1 52 0
 168 0046 0123     		movs	r3, #1	@ tmp128,
 169 0048 1360     		str	r3, [r2]	@ tmp128, MEM[(struct NRF_ECB_Type *)1073799168B].TASKS_STARTECB
  53:../sdk/nRF5_SDK_12.2.0_f012efa/components/drivers_nrf/hal/nrf_ecb.c ****    while (NRF_ECB->EVENTS_ENDECB == 0)
 170              		.loc 1 53 0
 171 004a 4FF08073 		mov	r3, #16777216	@ ivtmp_20,
 172              	.LVL3:
 173              	.L7:
 174 004e D2F80011 		ldr	r1, [r2, #256]	@ _11, MEM[(struct NRF_ECB_Type *)1073799168B].EVENTS_ENDECB
ARM GAS  /var/folders/nl/q97gxh4d5b321tqt4kfb6yzh0000gn/T//ccjiv1qf.s 			page 5


 175 0052 79B1     		cbz	r1, .L9	@ _11,
  54:../sdk/nRF5_SDK_12.2.0_f012efa/components/drivers_nrf/hal/nrf_ecb.c ****    {
  55:../sdk/nRF5_SDK_12.2.0_f012efa/components/drivers_nrf/hal/nrf_ecb.c ****     counter--;
  56:../sdk/nRF5_SDK_12.2.0_f012efa/components/drivers_nrf/hal/nrf_ecb.c ****     if (counter == 0)
  57:../sdk/nRF5_SDK_12.2.0_f012efa/components/drivers_nrf/hal/nrf_ecb.c ****     {
  58:../sdk/nRF5_SDK_12.2.0_f012efa/components/drivers_nrf/hal/nrf_ecb.c ****       return false;
  59:../sdk/nRF5_SDK_12.2.0_f012efa/components/drivers_nrf/hal/nrf_ecb.c ****     }
  60:../sdk/nRF5_SDK_12.2.0_f012efa/components/drivers_nrf/hal/nrf_ecb.c ****    }
  61:../sdk/nRF5_SDK_12.2.0_f012efa/components/drivers_nrf/hal/nrf_ecb.c ****    NRF_ECB->EVENTS_ENDECB = 0;
 176              		.loc 1 61 0
 177 0054 0023     		movs	r3, #0	@ tmp131,
 178              	.LVL4:
 179 0056 C2F80031 		str	r3, [r2, #256]	@ tmp131, MEM[(struct NRF_ECB_Type *)1073799168B].EVENTS_ENDECB
  62:../sdk/nRF5_SDK_12.2.0_f012efa/components/drivers_nrf/hal/nrf_ecb.c ****    if (dest_buf != ecb_ciphertext)
 180              		.loc 1 62 0
 181 005a A36B     		ldr	r3, [r4, #56]	@ ecb_ciphertext.2_14, ecb_ciphertext
 182 005c 8342     		cmp	r3, r0	@ ecb_ciphertext.2_14, dest_buf
 183 005e 07D0     		beq	.L12	@,
  63:../sdk/nRF5_SDK_12.2.0_f012efa/components/drivers_nrf/hal/nrf_ecb.c ****    {
  64:../sdk/nRF5_SDK_12.2.0_f012efa/components/drivers_nrf/hal/nrf_ecb.c ****      memcpy(dest_buf,ecb_ciphertext,16);
 184              		.loc 1 64 0
 185 0060 03F11002 		add	r2, r3, #16	@ tmp135, ecb_ciphertext.2_14,
 186              	.LVL5:
 187              	.L10:
 188 0064 53F8041B 		ldr	r1, [r3], #4	@ unaligned	@ tmp136,
 189 0068 40F8041B 		str	r1, [r0], #4	@ unaligned	@ tmp136,
 190 006c 9342     		cmp	r3, r2	@ ecb_ciphertext.2_14, tmp135
 191 006e F9D1     		bne	.L10	@,
 192              	.L12:
  65:../sdk/nRF5_SDK_12.2.0_f012efa/components/drivers_nrf/hal/nrf_ecb.c ****    }
  66:../sdk/nRF5_SDK_12.2.0_f012efa/components/drivers_nrf/hal/nrf_ecb.c ****    return true;
 193              		.loc 1 66 0
 194 0070 0120     		movs	r0, #1	@ <retval>,
  67:../sdk/nRF5_SDK_12.2.0_f012efa/components/drivers_nrf/hal/nrf_ecb.c **** }
 195              		.loc 1 67 0
 196 0072 30BD     		pop	{r4, r5, pc}	@
 197              	.LVL6:
 198              	.L9:
  56:../sdk/nRF5_SDK_12.2.0_f012efa/components/drivers_nrf/hal/nrf_ecb.c ****     {
 199              		.loc 1 56 0
 200 0074 013B     		subs	r3, r3, #1	@ ivtmp_20, ivtmp_20,
 201              	.LVL7:
 202 0076 EAD1     		bne	.L7	@,
  58:../sdk/nRF5_SDK_12.2.0_f012efa/components/drivers_nrf/hal/nrf_ecb.c ****     }
 203              		.loc 1 58 0
 204 0078 1846     		mov	r0, r3	@ <retval>, ivtmp_20
 205              	.LVL8:
 206 007a 30BD     		pop	{r4, r5, pc}	@
 207              	.L17:
 208              		.align	2
 209              	.L16:
 210 007c 00000000 		.word	.LANCHOR0
 211 0080 00E00040 		.word	1073799168
 212              		.cfi_endproc
 213              	.LFE125:
 214              		.size	nrf_ecb_crypt, .-nrf_ecb_crypt
 215              		.align	1
ARM GAS  /var/folders/nl/q97gxh4d5b321tqt4kfb6yzh0000gn/T//ccjiv1qf.s 			page 6


 216              		.global	nrf_ecb_set_key
 217              		.syntax unified
 218              		.thumb
 219              		.thumb_func
 220              		.fpu softvfp
 221              		.type	nrf_ecb_set_key, %function
 222              	nrf_ecb_set_key:
 223              	.LFB126:
  68:../sdk/nRF5_SDK_12.2.0_f012efa/components/drivers_nrf/hal/nrf_ecb.c **** 
  69:../sdk/nRF5_SDK_12.2.0_f012efa/components/drivers_nrf/hal/nrf_ecb.c **** void nrf_ecb_set_key(const uint8_t * key)
  70:../sdk/nRF5_SDK_12.2.0_f012efa/components/drivers_nrf/hal/nrf_ecb.c **** {
 224              		.loc 1 70 0
 225              		.cfi_startproc
 226              		@ args = 0, pretend = 0, frame = 0
 227              		@ frame_needed = 0, uses_anonymous_args = 0
 228              		@ link register save eliminated.
 229              	.LVL9:
  71:../sdk/nRF5_SDK_12.2.0_f012efa/components/drivers_nrf/hal/nrf_ecb.c ****   memcpy(ecb_key,key,16);
 230              		.loc 1 71 0
 231 0084 054B     		ldr	r3, .L21	@ tmp112,
 232 0086 1B68     		ldr	r3, [r3]	@ ecb_key, ecb_key
 233 0088 00F11002 		add	r2, r0, #16	@ tmp116, key,
 234              	.LVL10:
 235              	.L19:
 236 008c 50F8041B 		ldr	r1, [r0], #4	@ unaligned	@ tmp117,
 237 0090 43F8041B 		str	r1, [r3], #4	@ unaligned	@ tmp117,
 238 0094 9042     		cmp	r0, r2	@ key, tmp116
 239 0096 F9D1     		bne	.L19	@,
  72:../sdk/nRF5_SDK_12.2.0_f012efa/components/drivers_nrf/hal/nrf_ecb.c **** }
 240              		.loc 1 72 0
 241 0098 7047     		bx	lr	@
 242              	.L22:
 243 009a 00BF     		.align	2
 244              	.L21:
 245 009c 00000000 		.word	.LANCHOR0
 246              		.cfi_endproc
 247              	.LFE126:
 248              		.size	nrf_ecb_set_key, .-nrf_ecb_set_key
 249              		.bss
 250              		.align	2
 251              		.set	.LANCHOR0,. + 0
 252              		.type	ecb_key, %object
 253              		.size	ecb_key, 4
 254              	ecb_key:
 255 0000 00000000 		.space	4
 256              		.type	ecb_data, %object
 257              		.size	ecb_data, 48
 258              	ecb_data:
 259 0004 00000000 		.space	48
 259      00000000 
 259      00000000 
 259      00000000 
 259      00000000 
 260              		.type	ecb_cleartext, %object
 261              		.size	ecb_cleartext, 4
 262              	ecb_cleartext:
 263 0034 00000000 		.space	4
ARM GAS  /var/folders/nl/q97gxh4d5b321tqt4kfb6yzh0000gn/T//ccjiv1qf.s 			page 7


 264              		.type	ecb_ciphertext, %object
 265              		.size	ecb_ciphertext, 4
 266              	ecb_ciphertext:
 267 0038 00000000 		.space	4
 268              		.text
 269              	.Letext0:
 270              		.file 2 "/Users/lukashann/Documents/Imperial College London/Year 3/Project/fNIRS-Musketeers/nrf52/
 271              		.file 3 "/Users/lukashann/Documents/Imperial College London/Year 3/Project/fNIRS-Musketeers/nrf52/
 272              		.file 4 "/Users/lukashann/Documents/Imperial College London/Year 3/Project/fNIRS-Musketeers/nrf52/
 273              		.file 5 "/Users/lukashann/Documents/Imperial College London/Year 3/Project/fNIRS-Musketeers/nrf52/
 274              		.file 6 "/Users/lukashann/Documents/Imperial College London/Year 3/Project/fNIRS-Musketeers/nrf52/
 275              		.file 7 "/Users/lukashann/Documents/Imperial College London/Year 3/Project/fNIRS-Musketeers/nrf52/
 276              		.file 8 "/Users/lukashann/Documents/Imperial College London/Year 3/Project/fNIRS-Musketeers/nrf52/
 277              		.file 9 "../sdk/nRF5_SDK_12.2.0_f012efa/components/toolchain/cmsis/include/core_cm4.h"
 278              		.file 10 "../sdk/nRF5_SDK_12.2.0_f012efa/components/toolchain/system_nrf52.h"
 279              		.file 11 "../sdk/nRF5_SDK_12.2.0_f012efa/components/device/nrf52.h"
 280              		.section	.debug_info,"",%progbits
 281              	.Ldebug_info0:
 282 0000 E10B0000 		.4byte	0xbe1
 283 0004 0200     		.2byte	0x2
 284 0006 00000000 		.4byte	.Ldebug_abbrev0
 285 000a 04       		.byte	0x4
 286 000b 01       		.uleb128 0x1
 287 000c 35030000 		.4byte	.LASF148
 288 0010 0C       		.byte	0xc
 289 0011 3A060000 		.4byte	.LASF149
 290 0015 DC000000 		.4byte	.LASF150
 291 0019 00000000 		.4byte	.Ltext0
 292 001d A0000000 		.4byte	.Letext0
 293 0021 00000000 		.4byte	.Ldebug_line0
 294 0025 02       		.uleb128 0x2
 295 0026 04       		.byte	0x4
 296 0027 07       		.byte	0x7
 297 0028 8A050000 		.4byte	.LASF0
 298 002c 03       		.uleb128 0x3
 299 002d 04       		.byte	0x4
 300 002e 05       		.byte	0x5
 301 002f 696E7400 		.ascii	"int\000"
 302 0033 02       		.uleb128 0x2
 303 0034 08       		.byte	0x8
 304 0035 05       		.byte	0x5
 305 0036 99020000 		.4byte	.LASF1
 306 003a 02       		.uleb128 0x2
 307 003b 08       		.byte	0x8
 308 003c 04       		.byte	0x4
 309 003d 53050000 		.4byte	.LASF2
 310 0041 02       		.uleb128 0x2
 311 0042 01       		.byte	0x1
 312 0043 06       		.byte	0x6
 313 0044 D0000000 		.4byte	.LASF3
 314 0048 04       		.uleb128 0x4
 315 0049 31000000 		.4byte	.LASF7
 316 004d 02       		.byte	0x2
 317 004e 2B       		.byte	0x2b
 318 004f 53000000 		.4byte	0x53
 319 0053 02       		.uleb128 0x2
 320 0054 01       		.byte	0x1
ARM GAS  /var/folders/nl/q97gxh4d5b321tqt4kfb6yzh0000gn/T//ccjiv1qf.s 			page 8


 321 0055 08       		.byte	0x8
 322 0056 5C040000 		.4byte	.LASF4
 323 005a 02       		.uleb128 0x2
 324 005b 02       		.byte	0x2
 325 005c 05       		.byte	0x5
 326 005d 0C000000 		.4byte	.LASF5
 327 0061 02       		.uleb128 0x2
 328 0062 02       		.byte	0x2
 329 0063 07       		.byte	0x7
 330 0064 BD050000 		.4byte	.LASF6
 331 0068 04       		.uleb128 0x4
 332 0069 97050000 		.4byte	.LASF8
 333 006d 02       		.byte	0x2
 334 006e 4D       		.byte	0x4d
 335 006f 73000000 		.4byte	0x73
 336 0073 02       		.uleb128 0x2
 337 0074 04       		.byte	0x4
 338 0075 05       		.byte	0x5
 339 0076 83010000 		.4byte	.LASF9
 340 007a 04       		.uleb128 0x4
 341 007b EA010000 		.4byte	.LASF10
 342 007f 02       		.byte	0x2
 343 0080 4F       		.byte	0x4f
 344 0081 85000000 		.4byte	0x85
 345 0085 02       		.uleb128 0x2
 346 0086 04       		.byte	0x4
 347 0087 07       		.byte	0x7
 348 0088 61020000 		.4byte	.LASF11
 349 008c 02       		.uleb128 0x2
 350 008d 08       		.byte	0x8
 351 008e 07       		.byte	0x7
 352 008f 64000000 		.4byte	.LASF12
 353 0093 04       		.uleb128 0x4
 354 0094 3C040000 		.4byte	.LASF13
 355 0098 03       		.byte	0x3
 356 0099 07       		.byte	0x7
 357 009a 2C000000 		.4byte	0x2c
 358 009e 04       		.uleb128 0x4
 359 009f C2000000 		.4byte	.LASF14
 360 00a3 04       		.byte	0x4
 361 00a4 2C       		.byte	0x2c
 362 00a5 73000000 		.4byte	0x73
 363 00a9 04       		.uleb128 0x4
 364 00aa 4B050000 		.4byte	.LASF15
 365 00ae 04       		.byte	0x4
 366 00af 72       		.byte	0x72
 367 00b0 73000000 		.4byte	0x73
 368 00b4 05       		.uleb128 0x5
 369 00b5 FD030000 		.4byte	.LASF16
 370 00b9 05       		.byte	0x5
 371 00ba 6501     		.2byte	0x165
 372 00bc 25000000 		.4byte	0x25
 373 00c0 06       		.uleb128 0x6
 374 00c1 04       		.byte	0x4
 375 00c2 04       		.byte	0x4
 376 00c3 A6       		.byte	0xa6
 377 00c4 DF000000 		.4byte	0xdf
ARM GAS  /var/folders/nl/q97gxh4d5b321tqt4kfb6yzh0000gn/T//ccjiv1qf.s 			page 9


 378 00c8 07       		.uleb128 0x7
 379 00c9 C8020000 		.4byte	.LASF17
 380 00cd 04       		.byte	0x4
 381 00ce A8       		.byte	0xa8
 382 00cf B4000000 		.4byte	0xb4
 383 00d3 07       		.uleb128 0x7
 384 00d4 3A020000 		.4byte	.LASF18
 385 00d8 04       		.byte	0x4
 386 00d9 A9       		.byte	0xa9
 387 00da DF000000 		.4byte	0xdf
 388 00de 00       		.byte	0
 389 00df 08       		.uleb128 0x8
 390 00e0 53000000 		.4byte	0x53
 391 00e4 EF000000 		.4byte	0xef
 392 00e8 09       		.uleb128 0x9
 393 00e9 EF000000 		.4byte	0xef
 394 00ed 03       		.byte	0x3
 395 00ee 00       		.byte	0
 396 00ef 02       		.uleb128 0x2
 397 00f0 04       		.byte	0x4
 398 00f1 07       		.byte	0x7
 399 00f2 2C030000 		.4byte	.LASF19
 400 00f6 0A       		.uleb128 0xa
 401 00f7 08       		.byte	0x8
 402 00f8 04       		.byte	0x4
 403 00f9 A3       		.byte	0xa3
 404 00fa 1B010000 		.4byte	0x11b
 405 00fe 0B       		.uleb128 0xb
 406 00ff 2B050000 		.4byte	.LASF20
 407 0103 04       		.byte	0x4
 408 0104 A5       		.byte	0xa5
 409 0105 2C000000 		.4byte	0x2c
 410 0109 02       		.byte	0x2
 411 010a 23       		.byte	0x23
 412 010b 00       		.uleb128 0
 413 010c 0B       		.uleb128 0xb
 414 010d 33050000 		.4byte	.LASF21
 415 0111 04       		.byte	0x4
 416 0112 AA       		.byte	0xaa
 417 0113 C0000000 		.4byte	0xc0
 418 0117 02       		.byte	0x2
 419 0118 23       		.byte	0x23
 420 0119 04       		.uleb128 0x4
 421 011a 00       		.byte	0
 422 011b 04       		.uleb128 0x4
 423 011c AA040000 		.4byte	.LASF22
 424 0120 04       		.byte	0x4
 425 0121 AB       		.byte	0xab
 426 0122 F6000000 		.4byte	0xf6
 427 0126 04       		.uleb128 0x4
 428 0127 79040000 		.4byte	.LASF23
 429 012b 04       		.byte	0x4
 430 012c AF       		.byte	0xaf
 431 012d 93000000 		.4byte	0x93
 432 0131 0C       		.uleb128 0xc
 433 0132 04       		.byte	0x4
 434 0133 0D       		.uleb128 0xd
ARM GAS  /var/folders/nl/q97gxh4d5b321tqt4kfb6yzh0000gn/T//ccjiv1qf.s 			page 10


 435 0134 04       		.byte	0x4
 436 0135 39010000 		.4byte	0x139
 437 0139 02       		.uleb128 0x2
 438 013a 01       		.byte	0x1
 439 013b 08       		.byte	0x8
 440 013c 5F050000 		.4byte	.LASF24
 441 0140 0E       		.uleb128 0xe
 442 0141 39010000 		.4byte	0x139
 443 0145 04       		.uleb128 0x4
 444 0146 D5050000 		.4byte	.LASF25
 445 014a 06       		.byte	0x6
 446 014b 16       		.byte	0x16
 447 014c 85000000 		.4byte	0x85
 448 0150 0F       		.uleb128 0xf
 449 0151 1D020000 		.4byte	.LASF30
 450 0155 18       		.byte	0x18
 451 0156 06       		.byte	0x6
 452 0157 2F       		.byte	0x2f
 453 0158 AF010000 		.4byte	0x1af
 454 015c 0B       		.uleb128 0xb
 455 015d A1050000 		.4byte	.LASF26
 456 0161 06       		.byte	0x6
 457 0162 31       		.byte	0x31
 458 0163 AF010000 		.4byte	0x1af
 459 0167 02       		.byte	0x2
 460 0168 23       		.byte	0x23
 461 0169 00       		.uleb128 0
 462 016a 10       		.uleb128 0x10
 463 016b 5F6B00   		.ascii	"_k\000"
 464 016e 06       		.byte	0x6
 465 016f 32       		.byte	0x32
 466 0170 2C000000 		.4byte	0x2c
 467 0174 02       		.byte	0x2
 468 0175 23       		.byte	0x23
 469 0176 04       		.uleb128 0x4
 470 0177 0B       		.uleb128 0xb
 471 0178 16050000 		.4byte	.LASF27
 472 017c 06       		.byte	0x6
 473 017d 32       		.byte	0x32
 474 017e 2C000000 		.4byte	0x2c
 475 0182 02       		.byte	0x2
 476 0183 23       		.byte	0x23
 477 0184 08       		.uleb128 0x8
 478 0185 0B       		.uleb128 0xb
 479 0186 F5010000 		.4byte	.LASF28
 480 018a 06       		.byte	0x6
 481 018b 32       		.byte	0x32
 482 018c 2C000000 		.4byte	0x2c
 483 0190 02       		.byte	0x2
 484 0191 23       		.byte	0x23
 485 0192 0C       		.uleb128 0xc
 486 0193 0B       		.uleb128 0xb
 487 0194 13060000 		.4byte	.LASF29
 488 0198 06       		.byte	0x6
 489 0199 32       		.byte	0x32
 490 019a 2C000000 		.4byte	0x2c
 491 019e 02       		.byte	0x2
ARM GAS  /var/folders/nl/q97gxh4d5b321tqt4kfb6yzh0000gn/T//ccjiv1qf.s 			page 11


 492 019f 23       		.byte	0x23
 493 01a0 10       		.uleb128 0x10
 494 01a1 10       		.uleb128 0x10
 495 01a2 5F7800   		.ascii	"_x\000"
 496 01a5 06       		.byte	0x6
 497 01a6 33       		.byte	0x33
 498 01a7 B5010000 		.4byte	0x1b5
 499 01ab 02       		.byte	0x2
 500 01ac 23       		.byte	0x23
 501 01ad 14       		.uleb128 0x14
 502 01ae 00       		.byte	0
 503 01af 0D       		.uleb128 0xd
 504 01b0 04       		.byte	0x4
 505 01b1 50010000 		.4byte	0x150
 506 01b5 08       		.uleb128 0x8
 507 01b6 45010000 		.4byte	0x145
 508 01ba C5010000 		.4byte	0x1c5
 509 01be 09       		.uleb128 0x9
 510 01bf EF000000 		.4byte	0xef
 511 01c3 00       		.byte	0
 512 01c4 00       		.byte	0
 513 01c5 0F       		.uleb128 0xf
 514 01c6 35020000 		.4byte	.LASF31
 515 01ca 24       		.byte	0x24
 516 01cb 06       		.byte	0x6
 517 01cc 37       		.byte	0x37
 518 01cd 50020000 		.4byte	0x250
 519 01d1 0B       		.uleb128 0xb
 520 01d2 B9000000 		.4byte	.LASF32
 521 01d6 06       		.byte	0x6
 522 01d7 39       		.byte	0x39
 523 01d8 2C000000 		.4byte	0x2c
 524 01dc 02       		.byte	0x2
 525 01dd 23       		.byte	0x23
 526 01de 00       		.uleb128 0
 527 01df 0B       		.uleb128 0xb
 528 01e0 A6060000 		.4byte	.LASF33
 529 01e4 06       		.byte	0x6
 530 01e5 3A       		.byte	0x3a
 531 01e6 2C000000 		.4byte	0x2c
 532 01ea 02       		.byte	0x2
 533 01eb 23       		.byte	0x23
 534 01ec 04       		.uleb128 0x4
 535 01ed 0B       		.uleb128 0xb
 536 01ee 56010000 		.4byte	.LASF34
 537 01f2 06       		.byte	0x6
 538 01f3 3B       		.byte	0x3b
 539 01f4 2C000000 		.4byte	0x2c
 540 01f8 02       		.byte	0x2
 541 01f9 23       		.byte	0x23
 542 01fa 08       		.uleb128 0x8
 543 01fb 0B       		.uleb128 0xb
 544 01fc D9060000 		.4byte	.LASF35
 545 0200 06       		.byte	0x6
 546 0201 3C       		.byte	0x3c
 547 0202 2C000000 		.4byte	0x2c
 548 0206 02       		.byte	0x2
ARM GAS  /var/folders/nl/q97gxh4d5b321tqt4kfb6yzh0000gn/T//ccjiv1qf.s 			page 12


 549 0207 23       		.byte	0x23
 550 0208 0C       		.uleb128 0xc
 551 0209 0B       		.uleb128 0xb
 552 020a C8030000 		.4byte	.LASF36
 553 020e 06       		.byte	0x6
 554 020f 3D       		.byte	0x3d
 555 0210 2C000000 		.4byte	0x2c
 556 0214 02       		.byte	0x2
 557 0215 23       		.byte	0x23
 558 0216 10       		.uleb128 0x10
 559 0217 0B       		.uleb128 0xb
 560 0218 02030000 		.4byte	.LASF37
 561 021c 06       		.byte	0x6
 562 021d 3E       		.byte	0x3e
 563 021e 2C000000 		.4byte	0x2c
 564 0222 02       		.byte	0x2
 565 0223 23       		.byte	0x23
 566 0224 14       		.uleb128 0x14
 567 0225 0B       		.uleb128 0xb
 568 0226 41050000 		.4byte	.LASF38
 569 022a 06       		.byte	0x6
 570 022b 3F       		.byte	0x3f
 571 022c 2C000000 		.4byte	0x2c
 572 0230 02       		.byte	0x2
 573 0231 23       		.byte	0x23
 574 0232 18       		.uleb128 0x18
 575 0233 0B       		.uleb128 0xb
 576 0234 82040000 		.4byte	.LASF39
 577 0238 06       		.byte	0x6
 578 0239 40       		.byte	0x40
 579 023a 2C000000 		.4byte	0x2c
 580 023e 02       		.byte	0x2
 581 023f 23       		.byte	0x23
 582 0240 1C       		.uleb128 0x1c
 583 0241 0B       		.uleb128 0xb
 584 0242 8C060000 		.4byte	.LASF40
 585 0246 06       		.byte	0x6
 586 0247 41       		.byte	0x41
 587 0248 2C000000 		.4byte	0x2c
 588 024c 02       		.byte	0x2
 589 024d 23       		.byte	0x23
 590 024e 20       		.uleb128 0x20
 591 024f 00       		.byte	0
 592 0250 11       		.uleb128 0x11
 593 0251 65010000 		.4byte	.LASF41
 594 0255 0801     		.2byte	0x108
 595 0257 06       		.byte	0x6
 596 0258 4A       		.byte	0x4a
 597 0259 99020000 		.4byte	0x299
 598 025d 0B       		.uleb128 0xb
 599 025e 16000000 		.4byte	.LASF42
 600 0262 06       		.byte	0x6
 601 0263 4B       		.byte	0x4b
 602 0264 99020000 		.4byte	0x299
 603 0268 02       		.byte	0x2
 604 0269 23       		.byte	0x23
 605 026a 00       		.uleb128 0
ARM GAS  /var/folders/nl/q97gxh4d5b321tqt4kfb6yzh0000gn/T//ccjiv1qf.s 			page 13


 606 026b 0B       		.uleb128 0xb
 607 026c 00000000 		.4byte	.LASF43
 608 0270 06       		.byte	0x6
 609 0271 4C       		.byte	0x4c
 610 0272 99020000 		.4byte	0x299
 611 0276 03       		.byte	0x3
 612 0277 23       		.byte	0x23
 613 0278 8001     		.uleb128 0x80
 614 027a 0B       		.uleb128 0xb
 615 027b B4050000 		.4byte	.LASF44
 616 027f 06       		.byte	0x6
 617 0280 4E       		.byte	0x4e
 618 0281 45010000 		.4byte	0x145
 619 0285 03       		.byte	0x3
 620 0286 23       		.byte	0x23
 621 0287 8002     		.uleb128 0x100
 622 0289 0B       		.uleb128 0xb
 623 028a 93010000 		.4byte	.LASF45
 624 028e 06       		.byte	0x6
 625 028f 51       		.byte	0x51
 626 0290 45010000 		.4byte	0x145
 627 0294 03       		.byte	0x3
 628 0295 23       		.byte	0x23
 629 0296 8402     		.uleb128 0x104
 630 0298 00       		.byte	0
 631 0299 08       		.uleb128 0x8
 632 029a 31010000 		.4byte	0x131
 633 029e A9020000 		.4byte	0x2a9
 634 02a2 09       		.uleb128 0x9
 635 02a3 EF000000 		.4byte	0xef
 636 02a7 1F       		.byte	0x1f
 637 02a8 00       		.byte	0
 638 02a9 11       		.uleb128 0x11
 639 02aa D1030000 		.4byte	.LASF46
 640 02ae 9001     		.2byte	0x190
 641 02b0 06       		.byte	0x6
 642 02b1 5D       		.byte	0x5d
 643 02b2 F0020000 		.4byte	0x2f0
 644 02b6 0B       		.uleb128 0xb
 645 02b7 A1050000 		.4byte	.LASF26
 646 02bb 06       		.byte	0x6
 647 02bc 5E       		.byte	0x5e
 648 02bd F0020000 		.4byte	0x2f0
 649 02c1 02       		.byte	0x2
 650 02c2 23       		.byte	0x23
 651 02c3 00       		.uleb128 0
 652 02c4 0B       		.uleb128 0xb
 653 02c5 E6040000 		.4byte	.LASF47
 654 02c9 06       		.byte	0x6
 655 02ca 5F       		.byte	0x5f
 656 02cb 2C000000 		.4byte	0x2c
 657 02cf 02       		.byte	0x2
 658 02d0 23       		.byte	0x23
 659 02d1 04       		.uleb128 0x4
 660 02d2 0B       		.uleb128 0xb
 661 02d3 E5010000 		.4byte	.LASF48
 662 02d7 06       		.byte	0x6
ARM GAS  /var/folders/nl/q97gxh4d5b321tqt4kfb6yzh0000gn/T//ccjiv1qf.s 			page 14


 663 02d8 61       		.byte	0x61
 664 02d9 F6020000 		.4byte	0x2f6
 665 02dd 02       		.byte	0x2
 666 02de 23       		.byte	0x23
 667 02df 08       		.uleb128 0x8
 668 02e0 0B       		.uleb128 0xb
 669 02e1 65010000 		.4byte	.LASF41
 670 02e5 06       		.byte	0x6
 671 02e6 62       		.byte	0x62
 672 02e7 50020000 		.4byte	0x250
 673 02eb 03       		.byte	0x3
 674 02ec 23       		.byte	0x23
 675 02ed 8801     		.uleb128 0x88
 676 02ef 00       		.byte	0
 677 02f0 0D       		.uleb128 0xd
 678 02f1 04       		.byte	0x4
 679 02f2 A9020000 		.4byte	0x2a9
 680 02f6 08       		.uleb128 0x8
 681 02f7 06030000 		.4byte	0x306
 682 02fb 06030000 		.4byte	0x306
 683 02ff 09       		.uleb128 0x9
 684 0300 EF000000 		.4byte	0xef
 685 0304 1F       		.byte	0x1f
 686 0305 00       		.byte	0
 687 0306 0D       		.uleb128 0xd
 688 0307 04       		.byte	0x4
 689 0308 0C030000 		.4byte	0x30c
 690 030c 12       		.uleb128 0x12
 691 030d 01       		.byte	0x1
 692 030e 0F       		.uleb128 0xf
 693 030f 94040000 		.4byte	.LASF49
 694 0313 08       		.byte	0x8
 695 0314 06       		.byte	0x6
 696 0315 75       		.byte	0x75
 697 0316 37030000 		.4byte	0x337
 698 031a 0B       		.uleb128 0xb
 699 031b 42010000 		.4byte	.LASF50
 700 031f 06       		.byte	0x6
 701 0320 76       		.byte	0x76
 702 0321 37030000 		.4byte	0x337
 703 0325 02       		.byte	0x2
 704 0326 23       		.byte	0x23
 705 0327 00       		.uleb128 0
 706 0328 0B       		.uleb128 0xb
 707 0329 84050000 		.4byte	.LASF51
 708 032d 06       		.byte	0x6
 709 032e 77       		.byte	0x77
 710 032f 2C000000 		.4byte	0x2c
 711 0333 02       		.byte	0x2
 712 0334 23       		.byte	0x23
 713 0335 04       		.uleb128 0x4
 714 0336 00       		.byte	0
 715 0337 0D       		.uleb128 0xd
 716 0338 04       		.byte	0x4
 717 0339 53000000 		.4byte	0x53
 718 033d 0F       		.uleb128 0xf
 719 033e B5040000 		.4byte	.LASF52
ARM GAS  /var/folders/nl/q97gxh4d5b321tqt4kfb6yzh0000gn/T//ccjiv1qf.s 			page 15


 720 0342 68       		.byte	0x68
 721 0343 06       		.byte	0x6
 722 0344 B5       		.byte	0xb5
 723 0345 97040000 		.4byte	0x497
 724 0349 10       		.uleb128 0x10
 725 034a 5F7000   		.ascii	"_p\000"
 726 034d 06       		.byte	0x6
 727 034e B6       		.byte	0xb6
 728 034f 37030000 		.4byte	0x337
 729 0353 02       		.byte	0x2
 730 0354 23       		.byte	0x23
 731 0355 00       		.uleb128 0
 732 0356 10       		.uleb128 0x10
 733 0357 5F7200   		.ascii	"_r\000"
 734 035a 06       		.byte	0x6
 735 035b B7       		.byte	0xb7
 736 035c 2C000000 		.4byte	0x2c
 737 0360 02       		.byte	0x2
 738 0361 23       		.byte	0x23
 739 0362 04       		.uleb128 0x4
 740 0363 10       		.uleb128 0x10
 741 0364 5F7700   		.ascii	"_w\000"
 742 0367 06       		.byte	0x6
 743 0368 B8       		.byte	0xb8
 744 0369 2C000000 		.4byte	0x2c
 745 036d 02       		.byte	0x2
 746 036e 23       		.byte	0x23
 747 036f 08       		.uleb128 0x8
 748 0370 0B       		.uleb128 0xb
 749 0371 8C010000 		.4byte	.LASF53
 750 0375 06       		.byte	0x6
 751 0376 B9       		.byte	0xb9
 752 0377 5A000000 		.4byte	0x5a
 753 037b 02       		.byte	0x2
 754 037c 23       		.byte	0x23
 755 037d 0C       		.uleb128 0xc
 756 037e 0B       		.uleb128 0xb
 757 037f 73020000 		.4byte	.LASF54
 758 0383 06       		.byte	0x6
 759 0384 BA       		.byte	0xba
 760 0385 5A000000 		.4byte	0x5a
 761 0389 02       		.byte	0x2
 762 038a 23       		.byte	0x23
 763 038b 0E       		.uleb128 0xe
 764 038c 10       		.uleb128 0x10
 765 038d 5F626600 		.ascii	"_bf\000"
 766 0391 06       		.byte	0x6
 767 0392 BB       		.byte	0xbb
 768 0393 0E030000 		.4byte	0x30e
 769 0397 02       		.byte	0x2
 770 0398 23       		.byte	0x23
 771 0399 10       		.uleb128 0x10
 772 039a 0B       		.uleb128 0xb
 773 039b 7B000000 		.4byte	.LASF55
 774 039f 06       		.byte	0x6
 775 03a0 BC       		.byte	0xbc
 776 03a1 2C000000 		.4byte	0x2c
ARM GAS  /var/folders/nl/q97gxh4d5b321tqt4kfb6yzh0000gn/T//ccjiv1qf.s 			page 16


 777 03a5 02       		.byte	0x2
 778 03a6 23       		.byte	0x23
 779 03a7 18       		.uleb128 0x18
 780 03a8 0B       		.uleb128 0xb
 781 03a9 73010000 		.4byte	.LASF56
 782 03ad 06       		.byte	0x6
 783 03ae C3       		.byte	0xc3
 784 03af 31010000 		.4byte	0x131
 785 03b3 02       		.byte	0x2
 786 03b4 23       		.byte	0x23
 787 03b5 1C       		.uleb128 0x1c
 788 03b6 0B       		.uleb128 0xb
 789 03b7 25020000 		.4byte	.LASF57
 790 03bb 06       		.byte	0x6
 791 03bc C5       		.byte	0xc5
 792 03bd 1F060000 		.4byte	0x61f
 793 03c1 02       		.byte	0x2
 794 03c2 23       		.byte	0x23
 795 03c3 20       		.uleb128 0x20
 796 03c4 0B       		.uleb128 0xb
 797 03c5 FB020000 		.4byte	.LASF58
 798 03c9 06       		.byte	0x6
 799 03ca C7       		.byte	0xc7
 800 03cb 4A060000 		.4byte	0x64a
 801 03cf 02       		.byte	0x2
 802 03d0 23       		.byte	0x23
 803 03d1 24       		.uleb128 0x24
 804 03d2 0B       		.uleb128 0xb
 805 03d3 3B050000 		.4byte	.LASF59
 806 03d7 06       		.byte	0x6
 807 03d8 CA       		.byte	0xca
 808 03d9 6F060000 		.4byte	0x66f
 809 03dd 02       		.byte	0x2
 810 03de 23       		.byte	0x23
 811 03df 28       		.uleb128 0x28
 812 03e0 0B       		.uleb128 0xb
 813 03e1 C9000000 		.4byte	.LASF60
 814 03e5 06       		.byte	0x6
 815 03e6 CB       		.byte	0xcb
 816 03e7 8A060000 		.4byte	0x68a
 817 03eb 02       		.byte	0x2
 818 03ec 23       		.byte	0x23
 819 03ed 2C       		.uleb128 0x2c
 820 03ee 10       		.uleb128 0x10
 821 03ef 5F756200 		.ascii	"_ub\000"
 822 03f3 06       		.byte	0x6
 823 03f4 CE       		.byte	0xce
 824 03f5 0E030000 		.4byte	0x30e
 825 03f9 02       		.byte	0x2
 826 03fa 23       		.byte	0x23
 827 03fb 30       		.uleb128 0x30
 828 03fc 10       		.uleb128 0x10
 829 03fd 5F757000 		.ascii	"_up\000"
 830 0401 06       		.byte	0x6
 831 0402 CF       		.byte	0xcf
 832 0403 37030000 		.4byte	0x337
 833 0407 02       		.byte	0x2
ARM GAS  /var/folders/nl/q97gxh4d5b321tqt4kfb6yzh0000gn/T//ccjiv1qf.s 			page 17


 834 0408 23       		.byte	0x23
 835 0409 38       		.uleb128 0x38
 836 040a 10       		.uleb128 0x10
 837 040b 5F757200 		.ascii	"_ur\000"
 838 040f 06       		.byte	0x6
 839 0410 D0       		.byte	0xd0
 840 0411 2C000000 		.4byte	0x2c
 841 0415 02       		.byte	0x2
 842 0416 23       		.byte	0x23
 843 0417 3C       		.uleb128 0x3c
 844 0418 0B       		.uleb128 0xb
 845 0419 3C010000 		.4byte	.LASF61
 846 041d 06       		.byte	0x6
 847 041e D3       		.byte	0xd3
 848 041f 90060000 		.4byte	0x690
 849 0423 02       		.byte	0x2
 850 0424 23       		.byte	0x23
 851 0425 40       		.uleb128 0x40
 852 0426 0B       		.uleb128 0xb
 853 0427 7E060000 		.4byte	.LASF62
 854 042b 06       		.byte	0x6
 855 042c D4       		.byte	0xd4
 856 042d A0060000 		.4byte	0x6a0
 857 0431 02       		.byte	0x2
 858 0432 23       		.byte	0x23
 859 0433 43       		.uleb128 0x43
 860 0434 10       		.uleb128 0x10
 861 0435 5F6C6200 		.ascii	"_lb\000"
 862 0439 06       		.byte	0x6
 863 043a D7       		.byte	0xd7
 864 043b 0E030000 		.4byte	0x30e
 865 043f 02       		.byte	0x2
 866 0440 23       		.byte	0x23
 867 0441 44       		.uleb128 0x44
 868 0442 0B       		.uleb128 0xb
 869 0443 7B050000 		.4byte	.LASF63
 870 0447 06       		.byte	0x6
 871 0448 DA       		.byte	0xda
 872 0449 2C000000 		.4byte	0x2c
 873 044d 02       		.byte	0x2
 874 044e 23       		.byte	0x23
 875 044f 4C       		.uleb128 0x4c
 876 0450 0B       		.uleb128 0xb
 877 0451 B3010000 		.4byte	.LASF64
 878 0455 06       		.byte	0x6
 879 0456 DB       		.byte	0xdb
 880 0457 9E000000 		.4byte	0x9e
 881 045b 02       		.byte	0x2
 882 045c 23       		.byte	0x23
 883 045d 50       		.uleb128 0x50
 884 045e 0B       		.uleb128 0xb
 885 045f 79020000 		.4byte	.LASF65
 886 0463 06       		.byte	0x6
 887 0464 DE       		.byte	0xde
 888 0465 B6040000 		.4byte	0x4b6
 889 0469 02       		.byte	0x2
 890 046a 23       		.byte	0x23
ARM GAS  /var/folders/nl/q97gxh4d5b321tqt4kfb6yzh0000gn/T//ccjiv1qf.s 			page 18


 891 046b 54       		.uleb128 0x54
 892 046c 0B       		.uleb128 0xb
 893 046d D3020000 		.4byte	.LASF66
 894 0471 06       		.byte	0x6
 895 0472 E2       		.byte	0xe2
 896 0473 26010000 		.4byte	0x126
 897 0477 02       		.byte	0x2
 898 0478 23       		.byte	0x23
 899 0479 58       		.uleb128 0x58
 900 047a 0B       		.uleb128 0xb
 901 047b BD040000 		.4byte	.LASF67
 902 047f 06       		.byte	0x6
 903 0480 E4       		.byte	0xe4
 904 0481 1B010000 		.4byte	0x11b
 905 0485 02       		.byte	0x2
 906 0486 23       		.byte	0x23
 907 0487 5C       		.uleb128 0x5c
 908 0488 0B       		.uleb128 0xb
 909 0489 9B040000 		.4byte	.LASF68
 910 048d 06       		.byte	0x6
 911 048e E5       		.byte	0xe5
 912 048f 2C000000 		.4byte	0x2c
 913 0493 02       		.byte	0x2
 914 0494 23       		.byte	0x23
 915 0495 64       		.uleb128 0x64
 916 0496 00       		.byte	0
 917 0497 13       		.uleb128 0x13
 918 0498 01       		.byte	0x1
 919 0499 2C000000 		.4byte	0x2c
 920 049d B6040000 		.4byte	0x4b6
 921 04a1 14       		.uleb128 0x14
 922 04a2 B6040000 		.4byte	0x4b6
 923 04a6 14       		.uleb128 0x14
 924 04a7 31010000 		.4byte	0x131
 925 04ab 14       		.uleb128 0x14
 926 04ac 33010000 		.4byte	0x133
 927 04b0 14       		.uleb128 0x14
 928 04b1 2C000000 		.4byte	0x2c
 929 04b5 00       		.byte	0
 930 04b6 0D       		.uleb128 0xd
 931 04b7 04       		.byte	0x4
 932 04b8 C1040000 		.4byte	0x4c1
 933 04bc 0E       		.uleb128 0xe
 934 04bd B6040000 		.4byte	0x4b6
 935 04c1 15       		.uleb128 0x15
 936 04c2 1E050000 		.4byte	.LASF69
 937 04c6 2804     		.2byte	0x428
 938 04c8 06       		.byte	0x6
 939 04c9 3902     		.2byte	0x239
 940 04cb 1F060000 		.4byte	0x61f
 941 04cf 16       		.uleb128 0x16
 942 04d0 64050000 		.4byte	.LASF70
 943 04d4 06       		.byte	0x6
 944 04d5 3B02     		.2byte	0x23b
 945 04d7 2C000000 		.4byte	0x2c
 946 04db 02       		.byte	0x2
 947 04dc 23       		.byte	0x23
ARM GAS  /var/folders/nl/q97gxh4d5b321tqt4kfb6yzh0000gn/T//ccjiv1qf.s 			page 19


 948 04dd 00       		.uleb128 0
 949 04de 16       		.uleb128 0x16
 950 04df 9B010000 		.4byte	.LASF71
 951 04e3 06       		.byte	0x6
 952 04e4 4002     		.2byte	0x240
 953 04e6 FD060000 		.4byte	0x6fd
 954 04ea 02       		.byte	0x2
 955 04eb 23       		.byte	0x23
 956 04ec 04       		.uleb128 0x4
 957 04ed 16       		.uleb128 0x16
 958 04ee 51020000 		.4byte	.LASF72
 959 04f2 06       		.byte	0x6
 960 04f3 4002     		.2byte	0x240
 961 04f5 FD060000 		.4byte	0x6fd
 962 04f9 02       		.byte	0x2
 963 04fa 23       		.byte	0x23
 964 04fb 08       		.uleb128 0x8
 965 04fc 16       		.uleb128 0x16
 966 04fd 15020000 		.4byte	.LASF73
 967 0501 06       		.byte	0x6
 968 0502 4002     		.2byte	0x240
 969 0504 FD060000 		.4byte	0x6fd
 970 0508 02       		.byte	0x2
 971 0509 23       		.byte	0x23
 972 050a 0C       		.uleb128 0xc
 973 050b 16       		.uleb128 0x16
 974 050c E1040000 		.4byte	.LASF74
 975 0510 06       		.byte	0x6
 976 0511 4202     		.2byte	0x242
 977 0513 2C000000 		.4byte	0x2c
 978 0517 02       		.byte	0x2
 979 0518 23       		.byte	0x23
 980 0519 10       		.uleb128 0x10
 981 051a 16       		.uleb128 0x16
 982 051b 26000000 		.4byte	.LASF75
 983 051f 06       		.byte	0x6
 984 0520 4302     		.2byte	0x243
 985 0522 18090000 		.4byte	0x918
 986 0526 02       		.byte	0x2
 987 0527 23       		.byte	0x23
 988 0528 14       		.uleb128 0x14
 989 0529 16       		.uleb128 0x16
 990 052a FD040000 		.4byte	.LASF76
 991 052e 06       		.byte	0x6
 992 052f 4602     		.2byte	0x246
 993 0531 2C000000 		.4byte	0x2c
 994 0535 02       		.byte	0x2
 995 0536 23       		.byte	0x23
 996 0537 30       		.uleb128 0x30
 997 0538 16       		.uleb128 0x16
 998 0539 EB040000 		.4byte	.LASF77
 999 053d 06       		.byte	0x6
 1000 053e 4702     		.2byte	0x247
 1001 0540 2E090000 		.4byte	0x92e
 1002 0544 02       		.byte	0x2
 1003 0545 23       		.byte	0x23
 1004 0546 34       		.uleb128 0x34
ARM GAS  /var/folders/nl/q97gxh4d5b321tqt4kfb6yzh0000gn/T//ccjiv1qf.s 			page 20


 1005 0547 16       		.uleb128 0x16
 1006 0548 E3030000 		.4byte	.LASF78
 1007 054c 06       		.byte	0x6
 1008 054d 4902     		.2byte	0x249
 1009 054f 2C000000 		.4byte	0x2c
 1010 0553 02       		.byte	0x2
 1011 0554 23       		.byte	0x23
 1012 0555 38       		.uleb128 0x38
 1013 0556 16       		.uleb128 0x16
 1014 0557 F3040000 		.4byte	.LASF79
 1015 055b 06       		.byte	0x6
 1016 055c 4B02     		.2byte	0x24b
 1017 055e 40090000 		.4byte	0x940
 1018 0562 02       		.byte	0x2
 1019 0563 23       		.byte	0x23
 1020 0564 3C       		.uleb128 0x3c
 1021 0565 16       		.uleb128 0x16
 1022 0566 C0020000 		.4byte	.LASF80
 1023 056a 06       		.byte	0x6
 1024 056b 4E02     		.2byte	0x24e
 1025 056d AF010000 		.4byte	0x1af
 1026 0571 02       		.byte	0x2
 1027 0572 23       		.byte	0x23
 1028 0573 40       		.uleb128 0x40
 1029 0574 16       		.uleb128 0x16
 1030 0575 2B020000 		.4byte	.LASF81
 1031 0579 06       		.byte	0x6
 1032 057a 4F02     		.2byte	0x24f
 1033 057c 2C000000 		.4byte	0x2c
 1034 0580 02       		.byte	0x2
 1035 0581 23       		.byte	0x23
 1036 0582 44       		.uleb128 0x44
 1037 0583 16       		.uleb128 0x16
 1038 0584 C2060000 		.4byte	.LASF82
 1039 0588 06       		.byte	0x6
 1040 0589 5002     		.2byte	0x250
 1041 058b AF010000 		.4byte	0x1af
 1042 058f 02       		.byte	0x2
 1043 0590 23       		.byte	0x23
 1044 0591 48       		.uleb128 0x48
 1045 0592 16       		.uleb128 0x16
 1046 0593 14040000 		.4byte	.LASF83
 1047 0597 06       		.byte	0x6
 1048 0598 5102     		.2byte	0x251
 1049 059a 46090000 		.4byte	0x946
 1050 059e 02       		.byte	0x2
 1051 059f 23       		.byte	0x23
 1052 05a0 4C       		.uleb128 0x4c
 1053 05a1 16       		.uleb128 0x16
 1054 05a2 59020000 		.4byte	.LASF84
 1055 05a6 06       		.byte	0x6
 1056 05a7 5402     		.2byte	0x254
 1057 05a9 2C000000 		.4byte	0x2c
 1058 05ad 02       		.byte	0x2
 1059 05ae 23       		.byte	0x23
 1060 05af 50       		.uleb128 0x50
 1061 05b0 16       		.uleb128 0x16
ARM GAS  /var/folders/nl/q97gxh4d5b321tqt4kfb6yzh0000gn/T//ccjiv1qf.s 			page 21


 1062 05b1 AB010000 		.4byte	.LASF85
 1063 05b5 06       		.byte	0x6
 1064 05b6 5502     		.2byte	0x255
 1065 05b8 33010000 		.4byte	0x133
 1066 05bc 02       		.byte	0x2
 1067 05bd 23       		.byte	0x23
 1068 05be 54       		.uleb128 0x54
 1069 05bf 16       		.uleb128 0x16
 1070 05c0 CE020000 		.4byte	.LASF86
 1071 05c4 06       		.byte	0x6
 1072 05c5 7802     		.2byte	0x278
 1073 05c7 F6080000 		.4byte	0x8f6
 1074 05cb 02       		.byte	0x2
 1075 05cc 23       		.byte	0x23
 1076 05cd 58       		.uleb128 0x58
 1077 05ce 16       		.uleb128 0x16
 1078 05cf D1030000 		.4byte	.LASF46
 1079 05d3 06       		.byte	0x6
 1080 05d4 7C02     		.2byte	0x27c
 1081 05d6 F0020000 		.4byte	0x2f0
 1082 05da 03       		.byte	0x3
 1083 05db 23       		.byte	0x23
 1084 05dc C802     		.uleb128 0x148
 1085 05de 16       		.uleb128 0x16
 1086 05df 3B000000 		.4byte	.LASF87
 1087 05e3 06       		.byte	0x6
 1088 05e4 7D02     		.2byte	0x27d
 1089 05e6 A9020000 		.4byte	0x2a9
 1090 05ea 03       		.byte	0x3
 1091 05eb 23       		.byte	0x23
 1092 05ec CC02     		.uleb128 0x14c
 1093 05ee 16       		.uleb128 0x16
 1094 05ef 30060000 		.4byte	.LASF88
 1095 05f3 06       		.byte	0x6
 1096 05f4 8102     		.2byte	0x281
 1097 05f6 58090000 		.4byte	0x958
 1098 05fa 03       		.byte	0x3
 1099 05fb 23       		.byte	0x23
 1100 05fc DC05     		.uleb128 0x2dc
 1101 05fe 16       		.uleb128 0x16
 1102 05ff 7B010000 		.4byte	.LASF89
 1103 0603 06       		.byte	0x6
 1104 0604 8602     		.2byte	0x286
 1105 0606 BC060000 		.4byte	0x6bc
 1106 060a 03       		.byte	0x3
 1107 060b 23       		.byte	0x23
 1108 060c E005     		.uleb128 0x2e0
 1109 060e 16       		.uleb128 0x16
 1110 060f 60010000 		.4byte	.LASF90
 1111 0613 06       		.byte	0x6
 1112 0614 8702     		.2byte	0x287
 1113 0616 64090000 		.4byte	0x964
 1114 061a 03       		.byte	0x3
 1115 061b 23       		.byte	0x23
 1116 061c EC05     		.uleb128 0x2ec
 1117 061e 00       		.byte	0
 1118 061f 0D       		.uleb128 0xd
ARM GAS  /var/folders/nl/q97gxh4d5b321tqt4kfb6yzh0000gn/T//ccjiv1qf.s 			page 22


 1119 0620 04       		.byte	0x4
 1120 0621 97040000 		.4byte	0x497
 1121 0625 13       		.uleb128 0x13
 1122 0626 01       		.byte	0x1
 1123 0627 2C000000 		.4byte	0x2c
 1124 062b 44060000 		.4byte	0x644
 1125 062f 14       		.uleb128 0x14
 1126 0630 B6040000 		.4byte	0x4b6
 1127 0634 14       		.uleb128 0x14
 1128 0635 31010000 		.4byte	0x131
 1129 0639 14       		.uleb128 0x14
 1130 063a 44060000 		.4byte	0x644
 1131 063e 14       		.uleb128 0x14
 1132 063f 2C000000 		.4byte	0x2c
 1133 0643 00       		.byte	0
 1134 0644 0D       		.uleb128 0xd
 1135 0645 04       		.byte	0x4
 1136 0646 40010000 		.4byte	0x140
 1137 064a 0D       		.uleb128 0xd
 1138 064b 04       		.byte	0x4
 1139 064c 25060000 		.4byte	0x625
 1140 0650 13       		.uleb128 0x13
 1141 0651 01       		.byte	0x1
 1142 0652 A9000000 		.4byte	0xa9
 1143 0656 6F060000 		.4byte	0x66f
 1144 065a 14       		.uleb128 0x14
 1145 065b B6040000 		.4byte	0x4b6
 1146 065f 14       		.uleb128 0x14
 1147 0660 31010000 		.4byte	0x131
 1148 0664 14       		.uleb128 0x14
 1149 0665 A9000000 		.4byte	0xa9
 1150 0669 14       		.uleb128 0x14
 1151 066a 2C000000 		.4byte	0x2c
 1152 066e 00       		.byte	0
 1153 066f 0D       		.uleb128 0xd
 1154 0670 04       		.byte	0x4
 1155 0671 50060000 		.4byte	0x650
 1156 0675 13       		.uleb128 0x13
 1157 0676 01       		.byte	0x1
 1158 0677 2C000000 		.4byte	0x2c
 1159 067b 8A060000 		.4byte	0x68a
 1160 067f 14       		.uleb128 0x14
 1161 0680 B6040000 		.4byte	0x4b6
 1162 0684 14       		.uleb128 0x14
 1163 0685 31010000 		.4byte	0x131
 1164 0689 00       		.byte	0
 1165 068a 0D       		.uleb128 0xd
 1166 068b 04       		.byte	0x4
 1167 068c 75060000 		.4byte	0x675
 1168 0690 08       		.uleb128 0x8
 1169 0691 53000000 		.4byte	0x53
 1170 0695 A0060000 		.4byte	0x6a0
 1171 0699 09       		.uleb128 0x9
 1172 069a EF000000 		.4byte	0xef
 1173 069e 02       		.byte	0x2
 1174 069f 00       		.byte	0
 1175 06a0 08       		.uleb128 0x8
ARM GAS  /var/folders/nl/q97gxh4d5b321tqt4kfb6yzh0000gn/T//ccjiv1qf.s 			page 23


 1176 06a1 53000000 		.4byte	0x53
 1177 06a5 B0060000 		.4byte	0x6b0
 1178 06a9 09       		.uleb128 0x9
 1179 06aa EF000000 		.4byte	0xef
 1180 06ae 00       		.byte	0
 1181 06af 00       		.byte	0
 1182 06b0 05       		.uleb128 0x5
 1183 06b1 A3040000 		.4byte	.LASF91
 1184 06b5 06       		.byte	0x6
 1185 06b6 1F01     		.2byte	0x11f
 1186 06b8 3D030000 		.4byte	0x33d
 1187 06bc 17       		.uleb128 0x17
 1188 06bd 18060000 		.4byte	.LASF92
 1189 06c1 0C       		.byte	0xc
 1190 06c2 06       		.byte	0x6
 1191 06c3 2301     		.2byte	0x123
 1192 06c5 F7060000 		.4byte	0x6f7
 1193 06c9 16       		.uleb128 0x16
 1194 06ca A1050000 		.4byte	.LASF26
 1195 06ce 06       		.byte	0x6
 1196 06cf 2501     		.2byte	0x125
 1197 06d1 F7060000 		.4byte	0x6f7
 1198 06d5 02       		.byte	0x2
 1199 06d6 23       		.byte	0x23
 1200 06d7 00       		.uleb128 0
 1201 06d8 16       		.uleb128 0x16
 1202 06d9 87020000 		.4byte	.LASF93
 1203 06dd 06       		.byte	0x6
 1204 06de 2601     		.2byte	0x126
 1205 06e0 2C000000 		.4byte	0x2c
 1206 06e4 02       		.byte	0x2
 1207 06e5 23       		.byte	0x23
 1208 06e6 04       		.uleb128 0x4
 1209 06e7 16       		.uleb128 0x16
 1210 06e8 6A040000 		.4byte	.LASF94
 1211 06ec 06       		.byte	0x6
 1212 06ed 2701     		.2byte	0x127
 1213 06ef FD060000 		.4byte	0x6fd
 1214 06f3 02       		.byte	0x2
 1215 06f4 23       		.byte	0x23
 1216 06f5 08       		.uleb128 0x8
 1217 06f6 00       		.byte	0
 1218 06f7 0D       		.uleb128 0xd
 1219 06f8 04       		.byte	0x4
 1220 06f9 BC060000 		.4byte	0x6bc
 1221 06fd 0D       		.uleb128 0xd
 1222 06fe 04       		.byte	0x4
 1223 06ff B0060000 		.4byte	0x6b0
 1224 0703 17       		.uleb128 0x17
 1225 0704 1E000000 		.4byte	.LASF95
 1226 0708 0E       		.byte	0xe
 1227 0709 06       		.byte	0x6
 1228 070a 3F01     		.2byte	0x13f
 1229 070c 3E070000 		.4byte	0x73e
 1230 0710 16       		.uleb128 0x16
 1231 0711 25050000 		.4byte	.LASF96
 1232 0715 06       		.byte	0x6
ARM GAS  /var/folders/nl/q97gxh4d5b321tqt4kfb6yzh0000gn/T//ccjiv1qf.s 			page 24


 1233 0716 4001     		.2byte	0x140
 1234 0718 3E070000 		.4byte	0x73e
 1235 071c 02       		.byte	0x2
 1236 071d 23       		.byte	0x23
 1237 071e 00       		.uleb128 0
 1238 071f 16       		.uleb128 0x16
 1239 0720 D9020000 		.4byte	.LASF97
 1240 0724 06       		.byte	0x6
 1241 0725 4101     		.2byte	0x141
 1242 0727 3E070000 		.4byte	0x73e
 1243 072b 02       		.byte	0x2
 1244 072c 23       		.byte	0x23
 1245 072d 06       		.uleb128 0x6
 1246 072e 16       		.uleb128 0x16
 1247 072f D0050000 		.4byte	.LASF98
 1248 0733 06       		.byte	0x6
 1249 0734 4201     		.2byte	0x142
 1250 0736 61000000 		.4byte	0x61
 1251 073a 02       		.byte	0x2
 1252 073b 23       		.byte	0x23
 1253 073c 0C       		.uleb128 0xc
 1254 073d 00       		.byte	0
 1255 073e 08       		.uleb128 0x8
 1256 073f 61000000 		.4byte	0x61
 1257 0743 4E070000 		.4byte	0x74e
 1258 0747 09       		.uleb128 0x9
 1259 0748 EF000000 		.4byte	0xef
 1260 074c 02       		.byte	0x2
 1261 074d 00       		.byte	0
 1262 074e 18       		.uleb128 0x18
 1263 074f D0       		.byte	0xd0
 1264 0750 06       		.byte	0x6
 1265 0751 5902     		.2byte	0x259
 1266 0753 7E080000 		.4byte	0x87e
 1267 0757 16       		.uleb128 0x16
 1268 0758 06060000 		.4byte	.LASF99
 1269 075c 06       		.byte	0x6
 1270 075d 5B02     		.2byte	0x25b
 1271 075f 25000000 		.4byte	0x25
 1272 0763 02       		.byte	0x2
 1273 0764 23       		.byte	0x23
 1274 0765 00       		.uleb128 0
 1275 0766 16       		.uleb128 0x16
 1276 0767 A7050000 		.4byte	.LASF100
 1277 076b 06       		.byte	0x6
 1278 076c 5C02     		.2byte	0x25c
 1279 076e 33010000 		.4byte	0x133
 1280 0772 02       		.byte	0x2
 1281 0773 23       		.byte	0x23
 1282 0774 04       		.uleb128 0x4
 1283 0775 16       		.uleb128 0x16
 1284 0776 B3020000 		.4byte	.LASF101
 1285 077a 06       		.byte	0x6
 1286 077b 5D02     		.2byte	0x25d
 1287 077d 7E080000 		.4byte	0x87e
 1288 0781 02       		.byte	0x2
 1289 0782 23       		.byte	0x23
ARM GAS  /var/folders/nl/q97gxh4d5b321tqt4kfb6yzh0000gn/T//ccjiv1qf.s 			page 25


 1290 0783 08       		.uleb128 0x8
 1291 0784 16       		.uleb128 0x16
 1292 0785 97060000 		.4byte	.LASF102
 1293 0789 06       		.byte	0x6
 1294 078a 5E02     		.2byte	0x25e
 1295 078c C5010000 		.4byte	0x1c5
 1296 0790 02       		.byte	0x2
 1297 0791 23       		.byte	0x23
 1298 0792 24       		.uleb128 0x24
 1299 0793 16       		.uleb128 0x16
 1300 0794 EE030000 		.4byte	.LASF103
 1301 0798 06       		.byte	0x6
 1302 0799 5F02     		.2byte	0x25f
 1303 079b 2C000000 		.4byte	0x2c
 1304 079f 02       		.byte	0x2
 1305 07a0 23       		.byte	0x23
 1306 07a1 48       		.uleb128 0x48
 1307 07a2 16       		.uleb128 0x16
 1308 07a3 8E020000 		.4byte	.LASF104
 1309 07a7 06       		.byte	0x6
 1310 07a8 6002     		.2byte	0x260
 1311 07aa 8C000000 		.4byte	0x8c
 1312 07ae 02       		.byte	0x2
 1313 07af 23       		.byte	0x23
 1314 07b0 50       		.uleb128 0x50
 1315 07b1 16       		.uleb128 0x16
 1316 07b2 AF060000 		.4byte	.LASF105
 1317 07b6 06       		.byte	0x6
 1318 07b7 6102     		.2byte	0x261
 1319 07b9 03070000 		.4byte	0x703
 1320 07bd 02       		.byte	0x2
 1321 07be 23       		.byte	0x23
 1322 07bf 58       		.uleb128 0x58
 1323 07c0 16       		.uleb128 0x16
 1324 07c1 D4040000 		.4byte	.LASF106
 1325 07c5 06       		.byte	0x6
 1326 07c6 6202     		.2byte	0x262
 1327 07c8 1B010000 		.4byte	0x11b
 1328 07cc 02       		.byte	0x2
 1329 07cd 23       		.byte	0x23
 1330 07ce 68       		.uleb128 0x68
 1331 07cf 16       		.uleb128 0x16
 1332 07d0 B4060000 		.4byte	.LASF107
 1333 07d4 06       		.byte	0x6
 1334 07d5 6302     		.2byte	0x263
 1335 07d7 1B010000 		.4byte	0x11b
 1336 07db 02       		.byte	0x2
 1337 07dc 23       		.byte	0x23
 1338 07dd 70       		.uleb128 0x70
 1339 07de 16       		.uleb128 0x16
 1340 07df AB000000 		.4byte	.LASF108
 1341 07e3 06       		.byte	0x6
 1342 07e4 6402     		.2byte	0x264
 1343 07e6 1B010000 		.4byte	0x11b
 1344 07ea 02       		.byte	0x2
 1345 07eb 23       		.byte	0x23
 1346 07ec 78       		.uleb128 0x78
ARM GAS  /var/folders/nl/q97gxh4d5b321tqt4kfb6yzh0000gn/T//ccjiv1qf.s 			page 26


 1347 07ed 16       		.uleb128 0x16
 1348 07ee 26060000 		.4byte	.LASF109
 1349 07f2 06       		.byte	0x6
 1350 07f3 6502     		.2byte	0x265
 1351 07f5 8E080000 		.4byte	0x88e
 1352 07f9 03       		.byte	0x3
 1353 07fa 23       		.byte	0x23
 1354 07fb 8001     		.uleb128 0x80
 1355 07fd 16       		.uleb128 0x16
 1356 07fe A7020000 		.4byte	.LASF110
 1357 0802 06       		.byte	0x6
 1358 0803 6602     		.2byte	0x266
 1359 0805 9E080000 		.4byte	0x89e
 1360 0809 03       		.byte	0x3
 1361 080a 23       		.byte	0x23
 1362 080b 8801     		.uleb128 0x88
 1363 080d 16       		.uleb128 0x16
 1364 080e DD050000 		.4byte	.LASF111
 1365 0812 06       		.byte	0x6
 1366 0813 6702     		.2byte	0x267
 1367 0815 2C000000 		.4byte	0x2c
 1368 0819 03       		.byte	0x3
 1369 081a 23       		.byte	0x23
 1370 081b A001     		.uleb128 0xa0
 1371 081d 16       		.uleb128 0x16
 1372 081e D7010000 		.4byte	.LASF112
 1373 0822 06       		.byte	0x6
 1374 0823 6802     		.2byte	0x268
 1375 0825 1B010000 		.4byte	0x11b
 1376 0829 03       		.byte	0x3
 1377 082a 23       		.byte	0x23
 1378 082b A401     		.uleb128 0xa4
 1379 082d 16       		.uleb128 0x16
 1380 082e 9C000000 		.4byte	.LASF113
 1381 0832 06       		.byte	0x6
 1382 0833 6902     		.2byte	0x269
 1383 0835 1B010000 		.4byte	0x11b
 1384 0839 03       		.byte	0x3
 1385 083a 23       		.byte	0x23
 1386 083b AC01     		.uleb128 0xac
 1387 083d 16       		.uleb128 0x16
 1388 083e C6010000 		.4byte	.LASF114
 1389 0842 06       		.byte	0x6
 1390 0843 6A02     		.2byte	0x26a
 1391 0845 1B010000 		.4byte	0x11b
 1392 0849 03       		.byte	0x3
 1393 084a 23       		.byte	0x23
 1394 084b B401     		.uleb128 0xb4
 1395 084d 16       		.uleb128 0x16
 1396 084e 44000000 		.4byte	.LASF115
 1397 0852 06       		.byte	0x6
 1398 0853 6B02     		.2byte	0x26b
 1399 0855 1B010000 		.4byte	0x11b
 1400 0859 03       		.byte	0x3
 1401 085a 23       		.byte	0x23
 1402 085b BC01     		.uleb128 0xbc
 1403 085d 16       		.uleb128 0x16
ARM GAS  /var/folders/nl/q97gxh4d5b321tqt4kfb6yzh0000gn/T//ccjiv1qf.s 			page 27


 1404 085e 53000000 		.4byte	.LASF116
 1405 0862 06       		.byte	0x6
 1406 0863 6C02     		.2byte	0x26c
 1407 0865 1B010000 		.4byte	0x11b
 1408 0869 03       		.byte	0x3
 1409 086a 23       		.byte	0x23
 1410 086b C401     		.uleb128 0xc4
 1411 086d 16       		.uleb128 0x16
 1412 086e 70040000 		.4byte	.LASF117
 1413 0872 06       		.byte	0x6
 1414 0873 6D02     		.2byte	0x26d
 1415 0875 2C000000 		.4byte	0x2c
 1416 0879 03       		.byte	0x3
 1417 087a 23       		.byte	0x23
 1418 087b CC01     		.uleb128 0xcc
 1419 087d 00       		.byte	0
 1420 087e 08       		.uleb128 0x8
 1421 087f 39010000 		.4byte	0x139
 1422 0883 8E080000 		.4byte	0x88e
 1423 0887 09       		.uleb128 0x9
 1424 0888 EF000000 		.4byte	0xef
 1425 088c 19       		.byte	0x19
 1426 088d 00       		.byte	0
 1427 088e 08       		.uleb128 0x8
 1428 088f 39010000 		.4byte	0x139
 1429 0893 9E080000 		.4byte	0x89e
 1430 0897 09       		.uleb128 0x9
 1431 0898 EF000000 		.4byte	0xef
 1432 089c 07       		.byte	0x7
 1433 089d 00       		.byte	0
 1434 089e 08       		.uleb128 0x8
 1435 089f 39010000 		.4byte	0x139
 1436 08a3 AE080000 		.4byte	0x8ae
 1437 08a7 09       		.uleb128 0x9
 1438 08a8 EF000000 		.4byte	0xef
 1439 08ac 17       		.byte	0x17
 1440 08ad 00       		.byte	0
 1441 08ae 18       		.uleb128 0x18
 1442 08af F0       		.byte	0xf0
 1443 08b0 06       		.byte	0x6
 1444 08b1 7202     		.2byte	0x272
 1445 08b3 D6080000 		.4byte	0x8d6
 1446 08b7 16       		.uleb128 0x16
 1447 08b8 B9030000 		.4byte	.LASF118
 1448 08bc 06       		.byte	0x6
 1449 08bd 7502     		.2byte	0x275
 1450 08bf D6080000 		.4byte	0x8d6
 1451 08c3 02       		.byte	0x2
 1452 08c4 23       		.byte	0x23
 1453 08c5 00       		.uleb128 0
 1454 08c6 16       		.uleb128 0x16
 1455 08c7 23030000 		.4byte	.LASF119
 1456 08cb 06       		.byte	0x6
 1457 08cc 7602     		.2byte	0x276
 1458 08ce E6080000 		.4byte	0x8e6
 1459 08d2 02       		.byte	0x2
 1460 08d3 23       		.byte	0x23
ARM GAS  /var/folders/nl/q97gxh4d5b321tqt4kfb6yzh0000gn/T//ccjiv1qf.s 			page 28


 1461 08d4 78       		.uleb128 0x78
 1462 08d5 00       		.byte	0
 1463 08d6 08       		.uleb128 0x8
 1464 08d7 37030000 		.4byte	0x337
 1465 08db E6080000 		.4byte	0x8e6
 1466 08df 09       		.uleb128 0x9
 1467 08e0 EF000000 		.4byte	0xef
 1468 08e4 1D       		.byte	0x1d
 1469 08e5 00       		.byte	0
 1470 08e6 08       		.uleb128 0x8
 1471 08e7 25000000 		.4byte	0x25
 1472 08eb F6080000 		.4byte	0x8f6
 1473 08ef 09       		.uleb128 0x9
 1474 08f0 EF000000 		.4byte	0xef
 1475 08f4 1D       		.byte	0x1d
 1476 08f5 00       		.byte	0
 1477 08f6 19       		.uleb128 0x19
 1478 08f7 F0       		.byte	0xf0
 1479 08f8 06       		.byte	0x6
 1480 08f9 5702     		.2byte	0x257
 1481 08fb 18090000 		.4byte	0x918
 1482 08ff 1A       		.uleb128 0x1a
 1483 0900 1E050000 		.4byte	.LASF69
 1484 0904 06       		.byte	0x6
 1485 0905 6E02     		.2byte	0x26e
 1486 0907 4E070000 		.4byte	0x74e
 1487 090b 1A       		.uleb128 0x1a
 1488 090c 84060000 		.4byte	.LASF120
 1489 0910 06       		.byte	0x6
 1490 0911 7702     		.2byte	0x277
 1491 0913 AE080000 		.4byte	0x8ae
 1492 0917 00       		.byte	0
 1493 0918 08       		.uleb128 0x8
 1494 0919 39010000 		.4byte	0x139
 1495 091d 28090000 		.4byte	0x928
 1496 0921 09       		.uleb128 0x9
 1497 0922 EF000000 		.4byte	0xef
 1498 0926 18       		.byte	0x18
 1499 0927 00       		.byte	0
 1500 0928 1B       		.uleb128 0x1b
 1501 0929 84000000 		.4byte	.LASF151
 1502 092d 01       		.byte	0x1
 1503 092e 0D       		.uleb128 0xd
 1504 092f 04       		.byte	0x4
 1505 0930 28090000 		.4byte	0x928
 1506 0934 1C       		.uleb128 0x1c
 1507 0935 01       		.byte	0x1
 1508 0936 40090000 		.4byte	0x940
 1509 093a 14       		.uleb128 0x14
 1510 093b B6040000 		.4byte	0x4b6
 1511 093f 00       		.byte	0
 1512 0940 0D       		.uleb128 0xd
 1513 0941 04       		.byte	0x4
 1514 0942 34090000 		.4byte	0x934
 1515 0946 0D       		.uleb128 0xd
 1516 0947 04       		.byte	0x4
 1517 0948 AF010000 		.4byte	0x1af
ARM GAS  /var/folders/nl/q97gxh4d5b321tqt4kfb6yzh0000gn/T//ccjiv1qf.s 			page 29


 1518 094c 1C       		.uleb128 0x1c
 1519 094d 01       		.byte	0x1
 1520 094e 58090000 		.4byte	0x958
 1521 0952 14       		.uleb128 0x14
 1522 0953 2C000000 		.4byte	0x2c
 1523 0957 00       		.byte	0
 1524 0958 0D       		.uleb128 0xd
 1525 0959 04       		.byte	0x4
 1526 095a 5E090000 		.4byte	0x95e
 1527 095e 0D       		.uleb128 0xd
 1528 095f 04       		.byte	0x4
 1529 0960 4C090000 		.4byte	0x94c
 1530 0964 08       		.uleb128 0x8
 1531 0965 B0060000 		.4byte	0x6b0
 1532 0969 74090000 		.4byte	0x974
 1533 096d 09       		.uleb128 0x9
 1534 096e EF000000 		.4byte	0xef
 1535 0972 02       		.byte	0x2
 1536 0973 00       		.byte	0
 1537 0974 1D       		.uleb128 0x1d
 1538 0975 09020000 		.4byte	.LASF121
 1539 0979 06       		.byte	0x6
 1540 097a FE02     		.2byte	0x2fe
 1541 097c B6040000 		.4byte	0x4b6
 1542 0980 01       		.byte	0x1
 1543 0981 01       		.byte	0x1
 1544 0982 1D       		.uleb128 0x1d
 1545 0983 EA050000 		.4byte	.LASF122
 1546 0987 06       		.byte	0x6
 1547 0988 FF02     		.2byte	0x2ff
 1548 098a BC040000 		.4byte	0x4bc
 1549 098e 01       		.byte	0x1
 1550 098f 01       		.byte	0x1
 1551 0990 1E       		.uleb128 0x1e
 1552 0991 D9030000 		.4byte	.LASF123
 1553 0995 07       		.byte	0x7
 1554 0996 63       		.byte	0x63
 1555 0997 33010000 		.4byte	0x133
 1556 099b 01       		.byte	0x1
 1557 099c 01       		.byte	0x1
 1558 099d 04       		.uleb128 0x4
 1559 099e 1E060000 		.4byte	.LASF124
 1560 09a2 08       		.byte	0x8
 1561 09a3 18       		.byte	0x18
 1562 09a4 48000000 		.4byte	0x48
 1563 09a8 0E       		.uleb128 0xe
 1564 09a9 9D090000 		.4byte	0x99d
 1565 09ad 04       		.uleb128 0x4
 1566 09ae 54040000 		.4byte	.LASF125
 1567 09b2 08       		.byte	0x8
 1568 09b3 2C       		.byte	0x2c
 1569 09b4 68000000 		.4byte	0x68
 1570 09b8 1F       		.uleb128 0x1f
 1571 09b9 AD090000 		.4byte	0x9ad
 1572 09bd 04       		.uleb128 0x4
 1573 09be FD050000 		.4byte	.LASF126
 1574 09c2 08       		.byte	0x8
ARM GAS  /var/folders/nl/q97gxh4d5b321tqt4kfb6yzh0000gn/T//ccjiv1qf.s 			page 30


 1575 09c3 30       		.byte	0x30
 1576 09c4 7A000000 		.4byte	0x7a
 1577 09c8 1F       		.uleb128 0x1f
 1578 09c9 BD090000 		.4byte	0x9bd
 1579 09cd 0E       		.uleb128 0xe
 1580 09ce C8090000 		.4byte	0x9c8
 1581 09d2 1D       		.uleb128 0x1d
 1582 09d3 8F000000 		.4byte	.LASF127
 1583 09d7 09       		.byte	0x9
 1584 09d8 4407     		.2byte	0x744
 1585 09da B8090000 		.4byte	0x9b8
 1586 09de 01       		.byte	0x1
 1587 09df 01       		.byte	0x1
 1588 09e0 1E       		.uleb128 0x1e
 1589 09e1 41020000 		.4byte	.LASF128
 1590 09e5 0A       		.byte	0xa
 1591 09e6 29       		.byte	0x29
 1592 09e7 BD090000 		.4byte	0x9bd
 1593 09eb 01       		.byte	0x1
 1594 09ec 01       		.byte	0x1
 1595 09ed 08       		.uleb128 0x8
 1596 09ee CD090000 		.4byte	0x9cd
 1597 09f2 FD090000 		.4byte	0x9fd
 1598 09f6 09       		.uleb128 0x9
 1599 09f7 EF000000 		.4byte	0xef
 1600 09fb 3D       		.byte	0x3d
 1601 09fc 00       		.byte	0
 1602 09fd 0E       		.uleb128 0xe
 1603 09fe ED090000 		.4byte	0x9ed
 1604 0a02 1F       		.uleb128 0x1f
 1605 0a03 FD090000 		.4byte	0x9fd
 1606 0a07 08       		.uleb128 0x8
 1607 0a08 CD090000 		.4byte	0x9cd
 1608 0a0c 170A0000 		.4byte	0xa17
 1609 0a10 09       		.uleb128 0x9
 1610 0a11 EF000000 		.4byte	0xef
 1611 0a15 7D       		.byte	0x7d
 1612 0a16 00       		.byte	0
 1613 0a17 0E       		.uleb128 0xe
 1614 0a18 070A0000 		.4byte	0xa07
 1615 0a1c 1F       		.uleb128 0x1f
 1616 0a1d 170A0000 		.4byte	0xa17
 1617 0a21 08       		.uleb128 0x8
 1618 0a22 CD090000 		.4byte	0x9cd
 1619 0a26 310A0000 		.4byte	0xa31
 1620 0a2a 09       		.uleb128 0x9
 1621 0a2b EF000000 		.4byte	0xef
 1622 0a2f 7E       		.byte	0x7e
 1623 0a30 00       		.byte	0
 1624 0a31 0E       		.uleb128 0xe
 1625 0a32 210A0000 		.4byte	0xa21
 1626 0a36 1F       		.uleb128 0x1f
 1627 0a37 310A0000 		.4byte	0xa31
 1628 0a3b 20       		.uleb128 0x20
 1629 0a3c 0805     		.2byte	0x508
 1630 0a3e 0B       		.byte	0xb
 1631 0a3f 6F05     		.2byte	0x56f
ARM GAS  /var/folders/nl/q97gxh4d5b321tqt4kfb6yzh0000gn/T//ccjiv1qf.s 			page 31


 1632 0a41 E30A0000 		.4byte	0xae3
 1633 0a45 16       		.uleb128 0x16
 1634 0a46 E3060000 		.4byte	.LASF129
 1635 0a4a 0B       		.byte	0xb
 1636 0a4b 7005     		.2byte	0x570
 1637 0a4d C8090000 		.4byte	0x9c8
 1638 0a51 02       		.byte	0x2
 1639 0a52 23       		.byte	0x23
 1640 0a53 00       		.uleb128 0
 1641 0a54 16       		.uleb128 0x16
 1642 0a55 C6040000 		.4byte	.LASF130
 1643 0a59 0B       		.byte	0xb
 1644 0a5a 7105     		.2byte	0x571
 1645 0a5c C8090000 		.4byte	0x9c8
 1646 0a60 02       		.byte	0x2
 1647 0a61 23       		.byte	0x23
 1648 0a62 04       		.uleb128 0x4
 1649 0a63 16       		.uleb128 0x16
 1650 0a64 1E040000 		.4byte	.LASF131
 1651 0a68 0B       		.byte	0xb
 1652 0a69 7205     		.2byte	0x572
 1653 0a6b 020A0000 		.4byte	0xa02
 1654 0a6f 02       		.byte	0x2
 1655 0a70 23       		.byte	0x23
 1656 0a71 08       		.uleb128 0x8
 1657 0a72 16       		.uleb128 0x16
 1658 0a73 48010000 		.4byte	.LASF132
 1659 0a77 0B       		.byte	0xb
 1660 0a78 7305     		.2byte	0x573
 1661 0a7a C8090000 		.4byte	0x9c8
 1662 0a7e 03       		.byte	0x3
 1663 0a7f 23       		.byte	0x23
 1664 0a80 8002     		.uleb128 0x100
 1665 0a82 16       		.uleb128 0x16
 1666 0a83 04040000 		.4byte	.LASF133
 1667 0a87 0B       		.byte	0xb
 1668 0a88 7405     		.2byte	0x574
 1669 0a8a C8090000 		.4byte	0x9c8
 1670 0a8e 03       		.byte	0x3
 1671 0a8f 23       		.byte	0x23
 1672 0a90 8402     		.uleb128 0x104
 1673 0a92 16       		.uleb128 0x16
 1674 0a93 28040000 		.4byte	.LASF134
 1675 0a97 0B       		.byte	0xb
 1676 0a98 7605     		.2byte	0x576
 1677 0a9a 360A0000 		.4byte	0xa36
 1678 0a9e 03       		.byte	0x3
 1679 0a9f 23       		.byte	0x23
 1680 0aa0 8802     		.uleb128 0x108
 1681 0aa2 16       		.uleb128 0x16
 1682 0aa3 A2010000 		.4byte	.LASF135
 1683 0aa7 0B       		.byte	0xb
 1684 0aa8 7705     		.2byte	0x577
 1685 0aaa C8090000 		.4byte	0x9c8
 1686 0aae 03       		.byte	0x3
 1687 0aaf 23       		.byte	0x23
 1688 0ab0 8406     		.uleb128 0x304
ARM GAS  /var/folders/nl/q97gxh4d5b321tqt4kfb6yzh0000gn/T//ccjiv1qf.s 			page 32


 1689 0ab2 16       		.uleb128 0x16
 1690 0ab3 D0060000 		.4byte	.LASF136
 1691 0ab7 0B       		.byte	0xb
 1692 0ab8 7805     		.2byte	0x578
 1693 0aba C8090000 		.4byte	0x9c8
 1694 0abe 03       		.byte	0x3
 1695 0abf 23       		.byte	0x23
 1696 0ac0 8806     		.uleb128 0x308
 1697 0ac2 16       		.uleb128 0x16
 1698 0ac3 32040000 		.4byte	.LASF137
 1699 0ac7 0B       		.byte	0xb
 1700 0ac8 7905     		.2byte	0x579
 1701 0aca 1C0A0000 		.4byte	0xa1c
 1702 0ace 03       		.byte	0x3
 1703 0acf 23       		.byte	0x23
 1704 0ad0 8C06     		.uleb128 0x30c
 1705 0ad2 16       		.uleb128 0x16
 1706 0ad3 BB010000 		.4byte	.LASF138
 1707 0ad7 0B       		.byte	0xb
 1708 0ad8 7A05     		.2byte	0x57a
 1709 0ada C8090000 		.4byte	0x9c8
 1710 0ade 03       		.byte	0x3
 1711 0adf 23       		.byte	0x23
 1712 0ae0 840A     		.uleb128 0x504
 1713 0ae2 00       		.byte	0
 1714 0ae3 05       		.uleb128 0x5
 1715 0ae4 F2060000 		.4byte	.LASF139
 1716 0ae8 0B       		.byte	0xb
 1717 0ae9 7B05     		.2byte	0x57b
 1718 0aeb 3B0A0000 		.4byte	0xa3b
 1719 0aef 08       		.uleb128 0x8
 1720 0af0 9D090000 		.4byte	0x99d
 1721 0af4 FF0A0000 		.4byte	0xaff
 1722 0af8 09       		.uleb128 0x9
 1723 0af9 EF000000 		.4byte	0xef
 1724 0afd 2F       		.byte	0x2f
 1725 0afe 00       		.byte	0
 1726 0aff 21       		.uleb128 0x21
 1727 0b00 C7060000 		.4byte	.LASF140
 1728 0b04 01       		.byte	0x1
 1729 0b05 1C       		.byte	0x1c
 1730 0b06 EF0A0000 		.4byte	0xaef
 1731 0b0a 05       		.byte	0x5
 1732 0b0b 03       		.byte	0x3
 1733 0b0c 04000000 		.4byte	ecb_data
 1734 0b10 21       		.uleb128 0x21
 1735 0b11 7F020000 		.4byte	.LASF141
 1736 0b15 01       		.byte	0x1
 1737 0b16 1D       		.byte	0x1d
 1738 0b17 210B0000 		.4byte	0xb21
 1739 0b1b 05       		.byte	0x5
 1740 0b1c 03       		.byte	0x3
 1741 0b1d 00000000 		.4byte	ecb_key
 1742 0b21 0D       		.uleb128 0xd
 1743 0b22 04       		.byte	0x4
 1744 0b23 9D090000 		.4byte	0x99d
 1745 0b27 21       		.uleb128 0x21
ARM GAS  /var/folders/nl/q97gxh4d5b321tqt4kfb6yzh0000gn/T//ccjiv1qf.s 			page 33


 1746 0b28 15030000 		.4byte	.LASF142
 1747 0b2c 01       		.byte	0x1
 1748 0b2d 1E       		.byte	0x1e
 1749 0b2e 210B0000 		.4byte	0xb21
 1750 0b32 05       		.byte	0x5
 1751 0b33 03       		.byte	0x3
 1752 0b34 34000000 		.4byte	ecb_cleartext
 1753 0b38 21       		.uleb128 0x21
 1754 0b39 DF020000 		.4byte	.LASF143
 1755 0b3d 01       		.byte	0x1
 1756 0b3e 1F       		.byte	0x1f
 1757 0b3f 210B0000 		.4byte	0xb21
 1758 0b43 05       		.byte	0x5
 1759 0b44 03       		.byte	0x3
 1760 0b45 38000000 		.4byte	ecb_ciphertext
 1761 0b49 22       		.uleb128 0x22
 1762 0b4a 01       		.byte	0x1
 1763 0b4b 6B050000 		.4byte	.LASF152
 1764 0b4f 01       		.byte	0x1
 1765 0b50 45       		.byte	0x45
 1766 0b51 01       		.byte	0x1
 1767 0b52 84000000 		.4byte	.LFB126
 1768 0b56 A0000000 		.4byte	.LFE126
 1769 0b5a 02       		.byte	0x2
 1770 0b5b 7D       		.byte	0x7d
 1771 0b5c 00       		.sleb128 0
 1772 0b5d 01       		.byte	0x1
 1773 0b5e 720B0000 		.4byte	0xb72
 1774 0b62 23       		.uleb128 0x23
 1775 0b63 6B657900 		.ascii	"key\000"
 1776 0b67 01       		.byte	0x1
 1777 0b68 45       		.byte	0x45
 1778 0b69 720B0000 		.4byte	0xb72
 1779 0b6d 00000000 		.4byte	.LLST4
 1780 0b71 00       		.byte	0
 1781 0b72 0D       		.uleb128 0xd
 1782 0b73 04       		.byte	0x4
 1783 0b74 A8090000 		.4byte	0x9a8
 1784 0b78 24       		.uleb128 0x24
 1785 0b79 01       		.byte	0x1
 1786 0b7a FB010000 		.4byte	.LASF153
 1787 0b7e 01       		.byte	0x1
 1788 0b7f 2C       		.byte	0x2c
 1789 0b80 01       		.byte	0x1
 1790 0b81 C40B0000 		.4byte	0xbc4
 1791 0b85 24000000 		.4byte	.LFB125
 1792 0b89 84000000 		.4byte	.LFE125
 1793 0b8d 20000000 		.4byte	.LLST0
 1794 0b91 01       		.byte	0x1
 1795 0b92 C40B0000 		.4byte	0xbc4
 1796 0b96 25       		.uleb128 0x25
 1797 0b97 0C030000 		.4byte	.LASF144
 1798 0b9b 01       		.byte	0x1
 1799 0b9c 2C       		.byte	0x2c
 1800 0b9d 210B0000 		.4byte	0xb21
 1801 0ba1 40000000 		.4byte	.LLST1
 1802 0ba5 25       		.uleb128 0x25
ARM GAS  /var/folders/nl/q97gxh4d5b321tqt4kfb6yzh0000gn/T//ccjiv1qf.s 			page 34


 1803 0ba6 C0030000 		.4byte	.LASF145
 1804 0baa 01       		.byte	0x1
 1805 0bab 2C       		.byte	0x2c
 1806 0bac 720B0000 		.4byte	0xb72
 1807 0bb0 7A000000 		.4byte	.LLST2
 1808 0bb4 26       		.uleb128 0x26
 1809 0bb5 8C040000 		.4byte	.LASF146
 1810 0bb9 01       		.byte	0x1
 1811 0bba 2E       		.byte	0x2e
 1812 0bbb BD090000 		.4byte	0x9bd
 1813 0bbf A8000000 		.4byte	.LLST3
 1814 0bc3 00       		.byte	0
 1815 0bc4 02       		.uleb128 0x2
 1816 0bc5 01       		.byte	0x1
 1817 0bc6 02       		.byte	0x2
 1818 0bc7 4E040000 		.4byte	.LASF147
 1819 0bcb 27       		.uleb128 0x27
 1820 0bcc 01       		.byte	0x1
 1821 0bcd EE020000 		.4byte	.LASF154
 1822 0bd1 01       		.byte	0x1
 1823 0bd2 21       		.byte	0x21
 1824 0bd3 01       		.byte	0x1
 1825 0bd4 C40B0000 		.4byte	0xbc4
 1826 0bd8 00000000 		.4byte	.LFB124
 1827 0bdc 24000000 		.4byte	.LFE124
 1828 0be0 02       		.byte	0x2
 1829 0be1 7D       		.byte	0x7d
 1830 0be2 00       		.sleb128 0
 1831 0be3 01       		.byte	0x1
 1832 0be4 00       		.byte	0
 1833              		.section	.debug_abbrev,"",%progbits
 1834              	.Ldebug_abbrev0:
 1835 0000 01       		.uleb128 0x1
 1836 0001 11       		.uleb128 0x11
 1837 0002 01       		.byte	0x1
 1838 0003 25       		.uleb128 0x25
 1839 0004 0E       		.uleb128 0xe
 1840 0005 13       		.uleb128 0x13
 1841 0006 0B       		.uleb128 0xb
 1842 0007 03       		.uleb128 0x3
 1843 0008 0E       		.uleb128 0xe
 1844 0009 1B       		.uleb128 0x1b
 1845 000a 0E       		.uleb128 0xe
 1846 000b 11       		.uleb128 0x11
 1847 000c 01       		.uleb128 0x1
 1848 000d 12       		.uleb128 0x12
 1849 000e 01       		.uleb128 0x1
 1850 000f 10       		.uleb128 0x10
 1851 0010 06       		.uleb128 0x6
 1852 0011 00       		.byte	0
 1853 0012 00       		.byte	0
 1854 0013 02       		.uleb128 0x2
 1855 0014 24       		.uleb128 0x24
 1856 0015 00       		.byte	0
 1857 0016 0B       		.uleb128 0xb
 1858 0017 0B       		.uleb128 0xb
 1859 0018 3E       		.uleb128 0x3e
ARM GAS  /var/folders/nl/q97gxh4d5b321tqt4kfb6yzh0000gn/T//ccjiv1qf.s 			page 35


 1860 0019 0B       		.uleb128 0xb
 1861 001a 03       		.uleb128 0x3
 1862 001b 0E       		.uleb128 0xe
 1863 001c 00       		.byte	0
 1864 001d 00       		.byte	0
 1865 001e 03       		.uleb128 0x3
 1866 001f 24       		.uleb128 0x24
 1867 0020 00       		.byte	0
 1868 0021 0B       		.uleb128 0xb
 1869 0022 0B       		.uleb128 0xb
 1870 0023 3E       		.uleb128 0x3e
 1871 0024 0B       		.uleb128 0xb
 1872 0025 03       		.uleb128 0x3
 1873 0026 08       		.uleb128 0x8
 1874 0027 00       		.byte	0
 1875 0028 00       		.byte	0
 1876 0029 04       		.uleb128 0x4
 1877 002a 16       		.uleb128 0x16
 1878 002b 00       		.byte	0
 1879 002c 03       		.uleb128 0x3
 1880 002d 0E       		.uleb128 0xe
 1881 002e 3A       		.uleb128 0x3a
 1882 002f 0B       		.uleb128 0xb
 1883 0030 3B       		.uleb128 0x3b
 1884 0031 0B       		.uleb128 0xb
 1885 0032 49       		.uleb128 0x49
 1886 0033 13       		.uleb128 0x13
 1887 0034 00       		.byte	0
 1888 0035 00       		.byte	0
 1889 0036 05       		.uleb128 0x5
 1890 0037 16       		.uleb128 0x16
 1891 0038 00       		.byte	0
 1892 0039 03       		.uleb128 0x3
 1893 003a 0E       		.uleb128 0xe
 1894 003b 3A       		.uleb128 0x3a
 1895 003c 0B       		.uleb128 0xb
 1896 003d 3B       		.uleb128 0x3b
 1897 003e 05       		.uleb128 0x5
 1898 003f 49       		.uleb128 0x49
 1899 0040 13       		.uleb128 0x13
 1900 0041 00       		.byte	0
 1901 0042 00       		.byte	0
 1902 0043 06       		.uleb128 0x6
 1903 0044 17       		.uleb128 0x17
 1904 0045 01       		.byte	0x1
 1905 0046 0B       		.uleb128 0xb
 1906 0047 0B       		.uleb128 0xb
 1907 0048 3A       		.uleb128 0x3a
 1908 0049 0B       		.uleb128 0xb
 1909 004a 3B       		.uleb128 0x3b
 1910 004b 0B       		.uleb128 0xb
 1911 004c 01       		.uleb128 0x1
 1912 004d 13       		.uleb128 0x13
 1913 004e 00       		.byte	0
 1914 004f 00       		.byte	0
 1915 0050 07       		.uleb128 0x7
 1916 0051 0D       		.uleb128 0xd
ARM GAS  /var/folders/nl/q97gxh4d5b321tqt4kfb6yzh0000gn/T//ccjiv1qf.s 			page 36


 1917 0052 00       		.byte	0
 1918 0053 03       		.uleb128 0x3
 1919 0054 0E       		.uleb128 0xe
 1920 0055 3A       		.uleb128 0x3a
 1921 0056 0B       		.uleb128 0xb
 1922 0057 3B       		.uleb128 0x3b
 1923 0058 0B       		.uleb128 0xb
 1924 0059 49       		.uleb128 0x49
 1925 005a 13       		.uleb128 0x13
 1926 005b 00       		.byte	0
 1927 005c 00       		.byte	0
 1928 005d 08       		.uleb128 0x8
 1929 005e 01       		.uleb128 0x1
 1930 005f 01       		.byte	0x1
 1931 0060 49       		.uleb128 0x49
 1932 0061 13       		.uleb128 0x13
 1933 0062 01       		.uleb128 0x1
 1934 0063 13       		.uleb128 0x13
 1935 0064 00       		.byte	0
 1936 0065 00       		.byte	0
 1937 0066 09       		.uleb128 0x9
 1938 0067 21       		.uleb128 0x21
 1939 0068 00       		.byte	0
 1940 0069 49       		.uleb128 0x49
 1941 006a 13       		.uleb128 0x13
 1942 006b 2F       		.uleb128 0x2f
 1943 006c 0B       		.uleb128 0xb
 1944 006d 00       		.byte	0
 1945 006e 00       		.byte	0
 1946 006f 0A       		.uleb128 0xa
 1947 0070 13       		.uleb128 0x13
 1948 0071 01       		.byte	0x1
 1949 0072 0B       		.uleb128 0xb
 1950 0073 0B       		.uleb128 0xb
 1951 0074 3A       		.uleb128 0x3a
 1952 0075 0B       		.uleb128 0xb
 1953 0076 3B       		.uleb128 0x3b
 1954 0077 0B       		.uleb128 0xb
 1955 0078 01       		.uleb128 0x1
 1956 0079 13       		.uleb128 0x13
 1957 007a 00       		.byte	0
 1958 007b 00       		.byte	0
 1959 007c 0B       		.uleb128 0xb
 1960 007d 0D       		.uleb128 0xd
 1961 007e 00       		.byte	0
 1962 007f 03       		.uleb128 0x3
 1963 0080 0E       		.uleb128 0xe
 1964 0081 3A       		.uleb128 0x3a
 1965 0082 0B       		.uleb128 0xb
 1966 0083 3B       		.uleb128 0x3b
 1967 0084 0B       		.uleb128 0xb
 1968 0085 49       		.uleb128 0x49
 1969 0086 13       		.uleb128 0x13
 1970 0087 38       		.uleb128 0x38
 1971 0088 0A       		.uleb128 0xa
 1972 0089 00       		.byte	0
 1973 008a 00       		.byte	0
ARM GAS  /var/folders/nl/q97gxh4d5b321tqt4kfb6yzh0000gn/T//ccjiv1qf.s 			page 37


 1974 008b 0C       		.uleb128 0xc
 1975 008c 0F       		.uleb128 0xf
 1976 008d 00       		.byte	0
 1977 008e 0B       		.uleb128 0xb
 1978 008f 0B       		.uleb128 0xb
 1979 0090 00       		.byte	0
 1980 0091 00       		.byte	0
 1981 0092 0D       		.uleb128 0xd
 1982 0093 0F       		.uleb128 0xf
 1983 0094 00       		.byte	0
 1984 0095 0B       		.uleb128 0xb
 1985 0096 0B       		.uleb128 0xb
 1986 0097 49       		.uleb128 0x49
 1987 0098 13       		.uleb128 0x13
 1988 0099 00       		.byte	0
 1989 009a 00       		.byte	0
 1990 009b 0E       		.uleb128 0xe
 1991 009c 26       		.uleb128 0x26
 1992 009d 00       		.byte	0
 1993 009e 49       		.uleb128 0x49
 1994 009f 13       		.uleb128 0x13
 1995 00a0 00       		.byte	0
 1996 00a1 00       		.byte	0
 1997 00a2 0F       		.uleb128 0xf
 1998 00a3 13       		.uleb128 0x13
 1999 00a4 01       		.byte	0x1
 2000 00a5 03       		.uleb128 0x3
 2001 00a6 0E       		.uleb128 0xe
 2002 00a7 0B       		.uleb128 0xb
 2003 00a8 0B       		.uleb128 0xb
 2004 00a9 3A       		.uleb128 0x3a
 2005 00aa 0B       		.uleb128 0xb
 2006 00ab 3B       		.uleb128 0x3b
 2007 00ac 0B       		.uleb128 0xb
 2008 00ad 01       		.uleb128 0x1
 2009 00ae 13       		.uleb128 0x13
 2010 00af 00       		.byte	0
 2011 00b0 00       		.byte	0
 2012 00b1 10       		.uleb128 0x10
 2013 00b2 0D       		.uleb128 0xd
 2014 00b3 00       		.byte	0
 2015 00b4 03       		.uleb128 0x3
 2016 00b5 08       		.uleb128 0x8
 2017 00b6 3A       		.uleb128 0x3a
 2018 00b7 0B       		.uleb128 0xb
 2019 00b8 3B       		.uleb128 0x3b
 2020 00b9 0B       		.uleb128 0xb
 2021 00ba 49       		.uleb128 0x49
 2022 00bb 13       		.uleb128 0x13
 2023 00bc 38       		.uleb128 0x38
 2024 00bd 0A       		.uleb128 0xa
 2025 00be 00       		.byte	0
 2026 00bf 00       		.byte	0
 2027 00c0 11       		.uleb128 0x11
 2028 00c1 13       		.uleb128 0x13
 2029 00c2 01       		.byte	0x1
 2030 00c3 03       		.uleb128 0x3
ARM GAS  /var/folders/nl/q97gxh4d5b321tqt4kfb6yzh0000gn/T//ccjiv1qf.s 			page 38


 2031 00c4 0E       		.uleb128 0xe
 2032 00c5 0B       		.uleb128 0xb
 2033 00c6 05       		.uleb128 0x5
 2034 00c7 3A       		.uleb128 0x3a
 2035 00c8 0B       		.uleb128 0xb
 2036 00c9 3B       		.uleb128 0x3b
 2037 00ca 0B       		.uleb128 0xb
 2038 00cb 01       		.uleb128 0x1
 2039 00cc 13       		.uleb128 0x13
 2040 00cd 00       		.byte	0
 2041 00ce 00       		.byte	0
 2042 00cf 12       		.uleb128 0x12
 2043 00d0 15       		.uleb128 0x15
 2044 00d1 00       		.byte	0
 2045 00d2 27       		.uleb128 0x27
 2046 00d3 0C       		.uleb128 0xc
 2047 00d4 00       		.byte	0
 2048 00d5 00       		.byte	0
 2049 00d6 13       		.uleb128 0x13
 2050 00d7 15       		.uleb128 0x15
 2051 00d8 01       		.byte	0x1
 2052 00d9 27       		.uleb128 0x27
 2053 00da 0C       		.uleb128 0xc
 2054 00db 49       		.uleb128 0x49
 2055 00dc 13       		.uleb128 0x13
 2056 00dd 01       		.uleb128 0x1
 2057 00de 13       		.uleb128 0x13
 2058 00df 00       		.byte	0
 2059 00e0 00       		.byte	0
 2060 00e1 14       		.uleb128 0x14
 2061 00e2 05       		.uleb128 0x5
 2062 00e3 00       		.byte	0
 2063 00e4 49       		.uleb128 0x49
 2064 00e5 13       		.uleb128 0x13
 2065 00e6 00       		.byte	0
 2066 00e7 00       		.byte	0
 2067 00e8 15       		.uleb128 0x15
 2068 00e9 13       		.uleb128 0x13
 2069 00ea 01       		.byte	0x1
 2070 00eb 03       		.uleb128 0x3
 2071 00ec 0E       		.uleb128 0xe
 2072 00ed 0B       		.uleb128 0xb
 2073 00ee 05       		.uleb128 0x5
 2074 00ef 3A       		.uleb128 0x3a
 2075 00f0 0B       		.uleb128 0xb
 2076 00f1 3B       		.uleb128 0x3b
 2077 00f2 05       		.uleb128 0x5
 2078 00f3 01       		.uleb128 0x1
 2079 00f4 13       		.uleb128 0x13
 2080 00f5 00       		.byte	0
 2081 00f6 00       		.byte	0
 2082 00f7 16       		.uleb128 0x16
 2083 00f8 0D       		.uleb128 0xd
 2084 00f9 00       		.byte	0
 2085 00fa 03       		.uleb128 0x3
 2086 00fb 0E       		.uleb128 0xe
 2087 00fc 3A       		.uleb128 0x3a
ARM GAS  /var/folders/nl/q97gxh4d5b321tqt4kfb6yzh0000gn/T//ccjiv1qf.s 			page 39


 2088 00fd 0B       		.uleb128 0xb
 2089 00fe 3B       		.uleb128 0x3b
 2090 00ff 05       		.uleb128 0x5
 2091 0100 49       		.uleb128 0x49
 2092 0101 13       		.uleb128 0x13
 2093 0102 38       		.uleb128 0x38
 2094 0103 0A       		.uleb128 0xa
 2095 0104 00       		.byte	0
 2096 0105 00       		.byte	0
 2097 0106 17       		.uleb128 0x17
 2098 0107 13       		.uleb128 0x13
 2099 0108 01       		.byte	0x1
 2100 0109 03       		.uleb128 0x3
 2101 010a 0E       		.uleb128 0xe
 2102 010b 0B       		.uleb128 0xb
 2103 010c 0B       		.uleb128 0xb
 2104 010d 3A       		.uleb128 0x3a
 2105 010e 0B       		.uleb128 0xb
 2106 010f 3B       		.uleb128 0x3b
 2107 0110 05       		.uleb128 0x5
 2108 0111 01       		.uleb128 0x1
 2109 0112 13       		.uleb128 0x13
 2110 0113 00       		.byte	0
 2111 0114 00       		.byte	0
 2112 0115 18       		.uleb128 0x18
 2113 0116 13       		.uleb128 0x13
 2114 0117 01       		.byte	0x1
 2115 0118 0B       		.uleb128 0xb
 2116 0119 0B       		.uleb128 0xb
 2117 011a 3A       		.uleb128 0x3a
 2118 011b 0B       		.uleb128 0xb
 2119 011c 3B       		.uleb128 0x3b
 2120 011d 05       		.uleb128 0x5
 2121 011e 01       		.uleb128 0x1
 2122 011f 13       		.uleb128 0x13
 2123 0120 00       		.byte	0
 2124 0121 00       		.byte	0
 2125 0122 19       		.uleb128 0x19
 2126 0123 17       		.uleb128 0x17
 2127 0124 01       		.byte	0x1
 2128 0125 0B       		.uleb128 0xb
 2129 0126 0B       		.uleb128 0xb
 2130 0127 3A       		.uleb128 0x3a
 2131 0128 0B       		.uleb128 0xb
 2132 0129 3B       		.uleb128 0x3b
 2133 012a 05       		.uleb128 0x5
 2134 012b 01       		.uleb128 0x1
 2135 012c 13       		.uleb128 0x13
 2136 012d 00       		.byte	0
 2137 012e 00       		.byte	0
 2138 012f 1A       		.uleb128 0x1a
 2139 0130 0D       		.uleb128 0xd
 2140 0131 00       		.byte	0
 2141 0132 03       		.uleb128 0x3
 2142 0133 0E       		.uleb128 0xe
 2143 0134 3A       		.uleb128 0x3a
 2144 0135 0B       		.uleb128 0xb
ARM GAS  /var/folders/nl/q97gxh4d5b321tqt4kfb6yzh0000gn/T//ccjiv1qf.s 			page 40


 2145 0136 3B       		.uleb128 0x3b
 2146 0137 05       		.uleb128 0x5
 2147 0138 49       		.uleb128 0x49
 2148 0139 13       		.uleb128 0x13
 2149 013a 00       		.byte	0
 2150 013b 00       		.byte	0
 2151 013c 1B       		.uleb128 0x1b
 2152 013d 13       		.uleb128 0x13
 2153 013e 00       		.byte	0
 2154 013f 03       		.uleb128 0x3
 2155 0140 0E       		.uleb128 0xe
 2156 0141 3C       		.uleb128 0x3c
 2157 0142 0C       		.uleb128 0xc
 2158 0143 00       		.byte	0
 2159 0144 00       		.byte	0
 2160 0145 1C       		.uleb128 0x1c
 2161 0146 15       		.uleb128 0x15
 2162 0147 01       		.byte	0x1
 2163 0148 27       		.uleb128 0x27
 2164 0149 0C       		.uleb128 0xc
 2165 014a 01       		.uleb128 0x1
 2166 014b 13       		.uleb128 0x13
 2167 014c 00       		.byte	0
 2168 014d 00       		.byte	0
 2169 014e 1D       		.uleb128 0x1d
 2170 014f 34       		.uleb128 0x34
 2171 0150 00       		.byte	0
 2172 0151 03       		.uleb128 0x3
 2173 0152 0E       		.uleb128 0xe
 2174 0153 3A       		.uleb128 0x3a
 2175 0154 0B       		.uleb128 0xb
 2176 0155 3B       		.uleb128 0x3b
 2177 0156 05       		.uleb128 0x5
 2178 0157 49       		.uleb128 0x49
 2179 0158 13       		.uleb128 0x13
 2180 0159 3F       		.uleb128 0x3f
 2181 015a 0C       		.uleb128 0xc
 2182 015b 3C       		.uleb128 0x3c
 2183 015c 0C       		.uleb128 0xc
 2184 015d 00       		.byte	0
 2185 015e 00       		.byte	0
 2186 015f 1E       		.uleb128 0x1e
 2187 0160 34       		.uleb128 0x34
 2188 0161 00       		.byte	0
 2189 0162 03       		.uleb128 0x3
 2190 0163 0E       		.uleb128 0xe
 2191 0164 3A       		.uleb128 0x3a
 2192 0165 0B       		.uleb128 0xb
 2193 0166 3B       		.uleb128 0x3b
 2194 0167 0B       		.uleb128 0xb
 2195 0168 49       		.uleb128 0x49
 2196 0169 13       		.uleb128 0x13
 2197 016a 3F       		.uleb128 0x3f
 2198 016b 0C       		.uleb128 0xc
 2199 016c 3C       		.uleb128 0x3c
 2200 016d 0C       		.uleb128 0xc
 2201 016e 00       		.byte	0
ARM GAS  /var/folders/nl/q97gxh4d5b321tqt4kfb6yzh0000gn/T//ccjiv1qf.s 			page 41


 2202 016f 00       		.byte	0
 2203 0170 1F       		.uleb128 0x1f
 2204 0171 35       		.uleb128 0x35
 2205 0172 00       		.byte	0
 2206 0173 49       		.uleb128 0x49
 2207 0174 13       		.uleb128 0x13
 2208 0175 00       		.byte	0
 2209 0176 00       		.byte	0
 2210 0177 20       		.uleb128 0x20
 2211 0178 13       		.uleb128 0x13
 2212 0179 01       		.byte	0x1
 2213 017a 0B       		.uleb128 0xb
 2214 017b 05       		.uleb128 0x5
 2215 017c 3A       		.uleb128 0x3a
 2216 017d 0B       		.uleb128 0xb
 2217 017e 3B       		.uleb128 0x3b
 2218 017f 05       		.uleb128 0x5
 2219 0180 01       		.uleb128 0x1
 2220 0181 13       		.uleb128 0x13
 2221 0182 00       		.byte	0
 2222 0183 00       		.byte	0
 2223 0184 21       		.uleb128 0x21
 2224 0185 34       		.uleb128 0x34
 2225 0186 00       		.byte	0
 2226 0187 03       		.uleb128 0x3
 2227 0188 0E       		.uleb128 0xe
 2228 0189 3A       		.uleb128 0x3a
 2229 018a 0B       		.uleb128 0xb
 2230 018b 3B       		.uleb128 0x3b
 2231 018c 0B       		.uleb128 0xb
 2232 018d 49       		.uleb128 0x49
 2233 018e 13       		.uleb128 0x13
 2234 018f 02       		.uleb128 0x2
 2235 0190 0A       		.uleb128 0xa
 2236 0191 00       		.byte	0
 2237 0192 00       		.byte	0
 2238 0193 22       		.uleb128 0x22
 2239 0194 2E       		.uleb128 0x2e
 2240 0195 01       		.byte	0x1
 2241 0196 3F       		.uleb128 0x3f
 2242 0197 0C       		.uleb128 0xc
 2243 0198 03       		.uleb128 0x3
 2244 0199 0E       		.uleb128 0xe
 2245 019a 3A       		.uleb128 0x3a
 2246 019b 0B       		.uleb128 0xb
 2247 019c 3B       		.uleb128 0x3b
 2248 019d 0B       		.uleb128 0xb
 2249 019e 27       		.uleb128 0x27
 2250 019f 0C       		.uleb128 0xc
 2251 01a0 11       		.uleb128 0x11
 2252 01a1 01       		.uleb128 0x1
 2253 01a2 12       		.uleb128 0x12
 2254 01a3 01       		.uleb128 0x1
 2255 01a4 40       		.uleb128 0x40
 2256 01a5 0A       		.uleb128 0xa
 2257 01a6 9742     		.uleb128 0x2117
 2258 01a8 0C       		.uleb128 0xc
ARM GAS  /var/folders/nl/q97gxh4d5b321tqt4kfb6yzh0000gn/T//ccjiv1qf.s 			page 42


 2259 01a9 01       		.uleb128 0x1
 2260 01aa 13       		.uleb128 0x13
 2261 01ab 00       		.byte	0
 2262 01ac 00       		.byte	0
 2263 01ad 23       		.uleb128 0x23
 2264 01ae 05       		.uleb128 0x5
 2265 01af 00       		.byte	0
 2266 01b0 03       		.uleb128 0x3
 2267 01b1 08       		.uleb128 0x8
 2268 01b2 3A       		.uleb128 0x3a
 2269 01b3 0B       		.uleb128 0xb
 2270 01b4 3B       		.uleb128 0x3b
 2271 01b5 0B       		.uleb128 0xb
 2272 01b6 49       		.uleb128 0x49
 2273 01b7 13       		.uleb128 0x13
 2274 01b8 02       		.uleb128 0x2
 2275 01b9 06       		.uleb128 0x6
 2276 01ba 00       		.byte	0
 2277 01bb 00       		.byte	0
 2278 01bc 24       		.uleb128 0x24
 2279 01bd 2E       		.uleb128 0x2e
 2280 01be 01       		.byte	0x1
 2281 01bf 3F       		.uleb128 0x3f
 2282 01c0 0C       		.uleb128 0xc
 2283 01c1 03       		.uleb128 0x3
 2284 01c2 0E       		.uleb128 0xe
 2285 01c3 3A       		.uleb128 0x3a
 2286 01c4 0B       		.uleb128 0xb
 2287 01c5 3B       		.uleb128 0x3b
 2288 01c6 0B       		.uleb128 0xb
 2289 01c7 27       		.uleb128 0x27
 2290 01c8 0C       		.uleb128 0xc
 2291 01c9 49       		.uleb128 0x49
 2292 01ca 13       		.uleb128 0x13
 2293 01cb 11       		.uleb128 0x11
 2294 01cc 01       		.uleb128 0x1
 2295 01cd 12       		.uleb128 0x12
 2296 01ce 01       		.uleb128 0x1
 2297 01cf 40       		.uleb128 0x40
 2298 01d0 06       		.uleb128 0x6
 2299 01d1 9742     		.uleb128 0x2117
 2300 01d3 0C       		.uleb128 0xc
 2301 01d4 01       		.uleb128 0x1
 2302 01d5 13       		.uleb128 0x13
 2303 01d6 00       		.byte	0
 2304 01d7 00       		.byte	0
 2305 01d8 25       		.uleb128 0x25
 2306 01d9 05       		.uleb128 0x5
 2307 01da 00       		.byte	0
 2308 01db 03       		.uleb128 0x3
 2309 01dc 0E       		.uleb128 0xe
 2310 01dd 3A       		.uleb128 0x3a
 2311 01de 0B       		.uleb128 0xb
 2312 01df 3B       		.uleb128 0x3b
 2313 01e0 0B       		.uleb128 0xb
 2314 01e1 49       		.uleb128 0x49
 2315 01e2 13       		.uleb128 0x13
ARM GAS  /var/folders/nl/q97gxh4d5b321tqt4kfb6yzh0000gn/T//ccjiv1qf.s 			page 43


 2316 01e3 02       		.uleb128 0x2
 2317 01e4 06       		.uleb128 0x6
 2318 01e5 00       		.byte	0
 2319 01e6 00       		.byte	0
 2320 01e7 26       		.uleb128 0x26
 2321 01e8 34       		.uleb128 0x34
 2322 01e9 00       		.byte	0
 2323 01ea 03       		.uleb128 0x3
 2324 01eb 0E       		.uleb128 0xe
 2325 01ec 3A       		.uleb128 0x3a
 2326 01ed 0B       		.uleb128 0xb
 2327 01ee 3B       		.uleb128 0x3b
 2328 01ef 0B       		.uleb128 0xb
 2329 01f0 49       		.uleb128 0x49
 2330 01f1 13       		.uleb128 0x13
 2331 01f2 02       		.uleb128 0x2
 2332 01f3 06       		.uleb128 0x6
 2333 01f4 00       		.byte	0
 2334 01f5 00       		.byte	0
 2335 01f6 27       		.uleb128 0x27
 2336 01f7 2E       		.uleb128 0x2e
 2337 01f8 00       		.byte	0
 2338 01f9 3F       		.uleb128 0x3f
 2339 01fa 0C       		.uleb128 0xc
 2340 01fb 03       		.uleb128 0x3
 2341 01fc 0E       		.uleb128 0xe
 2342 01fd 3A       		.uleb128 0x3a
 2343 01fe 0B       		.uleb128 0xb
 2344 01ff 3B       		.uleb128 0x3b
 2345 0200 0B       		.uleb128 0xb
 2346 0201 27       		.uleb128 0x27
 2347 0202 0C       		.uleb128 0xc
 2348 0203 49       		.uleb128 0x49
 2349 0204 13       		.uleb128 0x13
 2350 0205 11       		.uleb128 0x11
 2351 0206 01       		.uleb128 0x1
 2352 0207 12       		.uleb128 0x12
 2353 0208 01       		.uleb128 0x1
 2354 0209 40       		.uleb128 0x40
 2355 020a 0A       		.uleb128 0xa
 2356 020b 9742     		.uleb128 0x2117
 2357 020d 0C       		.uleb128 0xc
 2358 020e 00       		.byte	0
 2359 020f 00       		.byte	0
 2360 0210 00       		.byte	0
 2361              		.section	.debug_loc,"",%progbits
 2362              	.Ldebug_loc0:
 2363              	.LLST4:
 2364 0000 84000000 		.4byte	.LVL9-.Ltext0
 2365 0004 8C000000 		.4byte	.LVL10-.Ltext0
 2366 0008 0100     		.2byte	0x1
 2367 000a 50       		.byte	0x50
 2368 000b 8C000000 		.4byte	.LVL10-.Ltext0
 2369 000f A0000000 		.4byte	.LFE126-.Ltext0
 2370 0013 0300     		.2byte	0x3
 2371 0015 72       		.byte	0x72
 2372 0016 70       		.sleb128 -16
ARM GAS  /var/folders/nl/q97gxh4d5b321tqt4kfb6yzh0000gn/T//ccjiv1qf.s 			page 44


 2373 0017 9F       		.byte	0x9f
 2374 0018 00000000 		.4byte	0
 2375 001c 00000000 		.4byte	0
 2376              	.LLST0:
 2377 0020 24000000 		.4byte	.LFB125-.Ltext0
 2378 0024 26000000 		.4byte	.LCFI0-.Ltext0
 2379 0028 0200     		.2byte	0x2
 2380 002a 7D       		.byte	0x7d
 2381 002b 00       		.sleb128 0
 2382 002c 26000000 		.4byte	.LCFI0-.Ltext0
 2383 0030 84000000 		.4byte	.LFE125-.Ltext0
 2384 0034 0200     		.2byte	0x2
 2385 0036 7D       		.byte	0x7d
 2386 0037 0C       		.sleb128 12
 2387 0038 00000000 		.4byte	0
 2388 003c 00000000 		.4byte	0
 2389              	.LLST1:
 2390 0040 24000000 		.4byte	.LVL0-.Ltext0
 2391 0044 64000000 		.4byte	.LVL5-.Ltext0
 2392 0048 0100     		.2byte	0x1
 2393 004a 50       		.byte	0x50
 2394 004b 64000000 		.4byte	.LVL5-.Ltext0
 2395 004f 74000000 		.4byte	.LVL6-.Ltext0
 2396 0053 0400     		.2byte	0x4
 2397 0055 F3       		.byte	0xf3
 2398 0056 01       		.uleb128 0x1
 2399 0057 50       		.byte	0x50
 2400 0058 9F       		.byte	0x9f
 2401 0059 74000000 		.4byte	.LVL6-.Ltext0
 2402 005d 7A000000 		.4byte	.LVL8-.Ltext0
 2403 0061 0100     		.2byte	0x1
 2404 0063 50       		.byte	0x50
 2405 0064 7A000000 		.4byte	.LVL8-.Ltext0
 2406 0068 84000000 		.4byte	.LFE125-.Ltext0
 2407 006c 0400     		.2byte	0x4
 2408 006e F3       		.byte	0xf3
 2409 006f 01       		.uleb128 0x1
 2410 0070 50       		.byte	0x50
 2411 0071 9F       		.byte	0x9f
 2412 0072 00000000 		.4byte	0
 2413 0076 00000000 		.4byte	0
 2414              	.LLST2:
 2415 007a 24000000 		.4byte	.LVL0-.Ltext0
 2416 007e 32000000 		.4byte	.LVL1-.Ltext0
 2417 0082 0100     		.2byte	0x1
 2418 0084 51       		.byte	0x51
 2419 0085 32000000 		.4byte	.LVL1-.Ltext0
 2420 0089 3E000000 		.4byte	.LVL2-.Ltext0
 2421 008d 0300     		.2byte	0x3
 2422 008f 72       		.byte	0x72
 2423 0090 70       		.sleb128 -16
 2424 0091 9F       		.byte	0x9f
 2425 0092 3E000000 		.4byte	.LVL2-.Ltext0
 2426 0096 84000000 		.4byte	.LFE125-.Ltext0
 2427 009a 0400     		.2byte	0x4
 2428 009c F3       		.byte	0xf3
 2429 009d 01       		.uleb128 0x1
ARM GAS  /var/folders/nl/q97gxh4d5b321tqt4kfb6yzh0000gn/T//ccjiv1qf.s 			page 45


 2430 009e 51       		.byte	0x51
 2431 009f 9F       		.byte	0x9f
 2432 00a0 00000000 		.4byte	0
 2433 00a4 00000000 		.4byte	0
 2434              	.LLST3:
 2435 00a8 24000000 		.4byte	.LVL0-.Ltext0
 2436 00ac 4E000000 		.4byte	.LVL3-.Ltext0
 2437 00b0 0400     		.2byte	0x4
 2438 00b2 40       		.byte	0x40
 2439 00b3 44       		.byte	0x44
 2440 00b4 24       		.byte	0x24
 2441 00b5 9F       		.byte	0x9f
 2442 00b6 4E000000 		.4byte	.LVL3-.Ltext0
 2443 00ba 56000000 		.4byte	.LVL4-.Ltext0
 2444 00be 0100     		.2byte	0x1
 2445 00c0 53       		.byte	0x53
 2446 00c1 74000000 		.4byte	.LVL6-.Ltext0
 2447 00c5 76000000 		.4byte	.LVL7-.Ltext0
 2448 00c9 0300     		.2byte	0x3
 2449 00cb 73       		.byte	0x73
 2450 00cc 7F       		.sleb128 -1
 2451 00cd 9F       		.byte	0x9f
 2452 00ce 76000000 		.4byte	.LVL7-.Ltext0
 2453 00d2 84000000 		.4byte	.LFE125-.Ltext0
 2454 00d6 0100     		.2byte	0x1
 2455 00d8 53       		.byte	0x53
 2456 00d9 00000000 		.4byte	0
 2457 00dd 00000000 		.4byte	0
 2458              		.section	.debug_aranges,"",%progbits
 2459 0000 1C000000 		.4byte	0x1c
 2460 0004 0200     		.2byte	0x2
 2461 0006 00000000 		.4byte	.Ldebug_info0
 2462 000a 04       		.byte	0x4
 2463 000b 00       		.byte	0
 2464 000c 0000     		.2byte	0
 2465 000e 0000     		.2byte	0
 2466 0010 00000000 		.4byte	.Ltext0
 2467 0014 A0000000 		.4byte	.Letext0-.Ltext0
 2468 0018 00000000 		.4byte	0
 2469 001c 00000000 		.4byte	0
 2470              		.section	.debug_line,"",%progbits
 2471              	.Ldebug_line0:
 2472 0000 D4030000 		.section	.debug_str,"MS",%progbits,1
 2472      0200A403 
 2472      00000201 
 2472      FB0E0D00 
 2472      01010101 
 2473              	.LASF43:
 2474 0000 5F64736F 		.ascii	"_dso_handle\000"
 2474      5F68616E 
 2474      646C6500 
 2475              	.LASF5:
 2476 000c 73686F72 		.ascii	"short int\000"
 2476      7420696E 
 2476      7400
 2477              	.LASF42:
 2478 0016 5F666E61 		.ascii	"_fnargs\000"
ARM GAS  /var/folders/nl/q97gxh4d5b321tqt4kfb6yzh0000gn/T//ccjiv1qf.s 			page 46


 2478      72677300 
 2479              	.LASF95:
 2480 001e 5F72616E 		.ascii	"_rand48\000"
 2480      64343800 
 2481              	.LASF75:
 2482 0026 5F656D65 		.ascii	"_emergency\000"
 2482      7267656E 
 2482      637900
 2483              	.LASF7:
 2484 0031 5F5F7569 		.ascii	"__uint8_t\000"
 2484      6E74385F 
 2484      7400
 2485              	.LASF87:
 2486 003b 5F617465 		.ascii	"_atexit0\000"
 2486      78697430 
 2486      00
 2487              	.LASF115:
 2488 0044 5F776372 		.ascii	"_wcrtomb_state\000"
 2488      746F6D62 
 2488      5F737461 
 2488      746500
 2489              	.LASF116:
 2490 0053 5F776373 		.ascii	"_wcsrtombs_state\000"
 2490      72746F6D 
 2490      62735F73 
 2490      74617465 
 2490      00
 2491              	.LASF12:
 2492 0064 6C6F6E67 		.ascii	"long long unsigned int\000"
 2492      206C6F6E 
 2492      6720756E 
 2492      7369676E 
 2492      65642069 
 2493              	.LASF55:
 2494 007b 5F6C6266 		.ascii	"_lbfsize\000"
 2494      73697A65 
 2494      00
 2495              	.LASF151:
 2496 0084 5F5F6C6F 		.ascii	"__locale_t\000"
 2496      63616C65 
 2496      5F7400
 2497              	.LASF127:
 2498 008f 49544D5F 		.ascii	"ITM_RxBuffer\000"
 2498      52784275 
 2498      66666572 
 2498      00
 2499              	.LASF113:
 2500 009c 5F6D6272 		.ascii	"_mbrtowc_state\000"
 2500      746F7763 
 2500      5F737461 
 2500      746500
 2501              	.LASF108:
 2502 00ab 5F776374 		.ascii	"_wctomb_state\000"
 2502      6F6D625F 
 2502      73746174 
 2502      6500
 2503              	.LASF32:
ARM GAS  /var/folders/nl/q97gxh4d5b321tqt4kfb6yzh0000gn/T//ccjiv1qf.s 			page 47


 2504 00b9 5F5F746D 		.ascii	"__tm_sec\000"
 2504      5F736563 
 2504      00
 2505              	.LASF14:
 2506 00c2 5F6F6666 		.ascii	"_off_t\000"
 2506      5F7400
 2507              	.LASF60:
 2508 00c9 5F636C6F 		.ascii	"_close\000"
 2508      736500
 2509              	.LASF3:
 2510 00d0 7369676E 		.ascii	"signed char\000"
 2510      65642063 
 2510      68617200 
 2511              	.LASF150:
 2512 00dc 2F557365 		.ascii	"/Users/lukashann/Documents/Imperial College London/"
 2512      72732F6C 
 2512      756B6173 
 2512      68616E6E 
 2512      2F446F63 
 2513 010f 59656172 		.ascii	"Year 3/Project/fNIRS-Musketeers/nrf52/blinky\000"
 2513      20332F50 
 2513      726F6A65 
 2513      63742F66 
 2513      4E495253 
 2514              	.LASF61:
 2515 013c 5F756275 		.ascii	"_ubuf\000"
 2515      6600
 2516              	.LASF50:
 2517 0142 5F626173 		.ascii	"_base\000"
 2517      6500
 2518              	.LASF132:
 2519 0148 4556454E 		.ascii	"EVENTS_ENDECB\000"
 2519      54535F45 
 2519      4E444543 
 2519      4200
 2520              	.LASF34:
 2521 0156 5F5F746D 		.ascii	"__tm_hour\000"
 2521      5F686F75 
 2521      7200
 2522              	.LASF90:
 2523 0160 5F5F7366 		.ascii	"__sf\000"
 2523      00
 2524              	.LASF41:
 2525 0165 5F6F6E5F 		.ascii	"_on_exit_args\000"
 2525      65786974 
 2525      5F617267 
 2525      7300
 2526              	.LASF56:
 2527 0173 5F636F6F 		.ascii	"_cookie\000"
 2527      6B696500 
 2528              	.LASF89:
 2529 017b 5F5F7367 		.ascii	"__sglue\000"
 2529      6C756500 
 2530              	.LASF9:
 2531 0183 6C6F6E67 		.ascii	"long int\000"
 2531      20696E74 
 2531      00
ARM GAS  /var/folders/nl/q97gxh4d5b321tqt4kfb6yzh0000gn/T//ccjiv1qf.s 			page 48


 2532              	.LASF53:
 2533 018c 5F666C61 		.ascii	"_flags\000"
 2533      677300
 2534              	.LASF45:
 2535 0193 5F69735F 		.ascii	"_is_cxa\000"
 2535      63786100 
 2536              	.LASF71:
 2537 019b 5F737464 		.ascii	"_stdin\000"
 2537      696E00
 2538              	.LASF135:
 2539 01a2 494E5445 		.ascii	"INTENSET\000"
 2539      4E534554 
 2539      00
 2540              	.LASF85:
 2541 01ab 5F637674 		.ascii	"_cvtbuf\000"
 2541      62756600 
 2542              	.LASF64:
 2543 01b3 5F6F6666 		.ascii	"_offset\000"
 2543      73657400 
 2544              	.LASF138:
 2545 01bb 45434244 		.ascii	"ECBDATAPTR\000"
 2545      41544150 
 2545      545200
 2546              	.LASF114:
 2547 01c6 5F6D6273 		.ascii	"_mbsrtowcs_state\000"
 2547      72746F77 
 2547      63735F73 
 2547      74617465 
 2547      00
 2548              	.LASF112:
 2549 01d7 5F6D6272 		.ascii	"_mbrlen_state\000"
 2549      6C656E5F 
 2549      73746174 
 2549      6500
 2550              	.LASF48:
 2551 01e5 5F666E73 		.ascii	"_fns\000"
 2551      00
 2552              	.LASF10:
 2553 01ea 5F5F7569 		.ascii	"__uint32_t\000"
 2553      6E743332 
 2553      5F7400
 2554              	.LASF28:
 2555 01f5 5F736967 		.ascii	"_sign\000"
 2555      6E00
 2556              	.LASF153:
 2557 01fb 6E72665F 		.ascii	"nrf_ecb_crypt\000"
 2557      6563625F 
 2557      63727970 
 2557      7400
 2558              	.LASF121:
 2559 0209 5F696D70 		.ascii	"_impure_ptr\000"
 2559      7572655F 
 2559      70747200 
 2560              	.LASF73:
 2561 0215 5F737464 		.ascii	"_stderr\000"
 2561      65727200 
 2562              	.LASF30:
ARM GAS  /var/folders/nl/q97gxh4d5b321tqt4kfb6yzh0000gn/T//ccjiv1qf.s 			page 49


 2563 021d 5F426967 		.ascii	"_Bigint\000"
 2563      696E7400 
 2564              	.LASF57:
 2565 0225 5F726561 		.ascii	"_read\000"
 2565      6400
 2566              	.LASF81:
 2567 022b 5F726573 		.ascii	"_result_k\000"
 2567      756C745F 
 2567      6B00
 2568              	.LASF31:
 2569 0235 5F5F746D 		.ascii	"__tm\000"
 2569      00
 2570              	.LASF18:
 2571 023a 5F5F7763 		.ascii	"__wchb\000"
 2571      686200
 2572              	.LASF128:
 2573 0241 53797374 		.ascii	"SystemCoreClock\000"
 2573      656D436F 
 2573      7265436C 
 2573      6F636B00 
 2574              	.LASF72:
 2575 0251 5F737464 		.ascii	"_stdout\000"
 2575      6F757400 
 2576              	.LASF84:
 2577 0259 5F637674 		.ascii	"_cvtlen\000"
 2577      6C656E00 
 2578              	.LASF11:
 2579 0261 6C6F6E67 		.ascii	"long unsigned int\000"
 2579      20756E73 
 2579      69676E65 
 2579      6420696E 
 2579      7400
 2580              	.LASF54:
 2581 0273 5F66696C 		.ascii	"_file\000"
 2581      6500
 2582              	.LASF65:
 2583 0279 5F646174 		.ascii	"_data\000"
 2583      6100
 2584              	.LASF141:
 2585 027f 6563625F 		.ascii	"ecb_key\000"
 2585      6B657900 
 2586              	.LASF93:
 2587 0287 5F6E696F 		.ascii	"_niobs\000"
 2587      627300
 2588              	.LASF104:
 2589 028e 5F72616E 		.ascii	"_rand_next\000"
 2589      645F6E65 
 2589      787400
 2590              	.LASF1:
 2591 0299 6C6F6E67 		.ascii	"long long int\000"
 2591      206C6F6E 
 2591      6720696E 
 2591      7400
 2592              	.LASF110:
 2593 02a7 5F736967 		.ascii	"_signal_buf\000"
 2593      6E616C5F 
 2593      62756600 
ARM GAS  /var/folders/nl/q97gxh4d5b321tqt4kfb6yzh0000gn/T//ccjiv1qf.s 			page 50


 2594              	.LASF101:
 2595 02b3 5F617363 		.ascii	"_asctime_buf\000"
 2595      74696D65 
 2595      5F627566 
 2595      00
 2596              	.LASF80:
 2597 02c0 5F726573 		.ascii	"_result\000"
 2597      756C7400 
 2598              	.LASF17:
 2599 02c8 5F5F7763 		.ascii	"__wch\000"
 2599      6800
 2600              	.LASF86:
 2601 02ce 5F6E6577 		.ascii	"_new\000"
 2601      00
 2602              	.LASF66:
 2603 02d3 5F6C6F63 		.ascii	"_lock\000"
 2603      6B00
 2604              	.LASF97:
 2605 02d9 5F6D756C 		.ascii	"_mult\000"
 2605      7400
 2606              	.LASF143:
 2607 02df 6563625F 		.ascii	"ecb_ciphertext\000"
 2607      63697068 
 2607      65727465 
 2607      787400
 2608              	.LASF154:
 2609 02ee 6E72665F 		.ascii	"nrf_ecb_init\000"
 2609      6563625F 
 2609      696E6974 
 2609      00
 2610              	.LASF58:
 2611 02fb 5F777269 		.ascii	"_write\000"
 2611      746500
 2612              	.LASF37:
 2613 0302 5F5F746D 		.ascii	"__tm_year\000"
 2613      5F796561 
 2613      7200
 2614              	.LASF144:
 2615 030c 64657374 		.ascii	"dest_buf\000"
 2615      5F627566 
 2615      00
 2616              	.LASF142:
 2617 0315 6563625F 		.ascii	"ecb_cleartext\000"
 2617      636C6561 
 2617      72746578 
 2617      7400
 2618              	.LASF119:
 2619 0323 5F6E6D61 		.ascii	"_nmalloc\000"
 2619      6C6C6F63 
 2619      00
 2620              	.LASF19:
 2621 032c 73697A65 		.ascii	"sizetype\000"
 2621      74797065 
 2621      00
 2622              	.LASF148:
 2623 0335 474E5520 		.ascii	"GNU C11 6.2.1 20161205 (release) [ARM/embedded-6-br"
 2623      43313120 
ARM GAS  /var/folders/nl/q97gxh4d5b321tqt4kfb6yzh0000gn/T//ccjiv1qf.s 			page 51


 2623      362E322E 
 2623      31203230 
 2623      31363132 
 2624 0368 616E6368 		.ascii	"anch revision 243739] -mcpu=cortex-m4 -mthumb -gdwa"
 2624      20726576 
 2624      6973696F 
 2624      6E203234 
 2624      33373339 
 2625 039b 72662D32 		.ascii	"rf-2 -Os -fomit-frame-pointer\000"
 2625      202D4F73 
 2625      202D666F 
 2625      6D69742D 
 2625      6672616D 
 2626              	.LASF118:
 2627 03b9 5F6E6578 		.ascii	"_nextf\000"
 2627      746600
 2628              	.LASF145:
 2629 03c0 7372635F 		.ascii	"src_buf\000"
 2629      62756600 
 2630              	.LASF36:
 2631 03c8 5F5F746D 		.ascii	"__tm_mon\000"
 2631      5F6D6F6E 
 2631      00
 2632              	.LASF46:
 2633 03d1 5F617465 		.ascii	"_atexit\000"
 2633      78697400 
 2634              	.LASF123:
 2635 03d9 7375626F 		.ascii	"suboptarg\000"
 2635      70746172 
 2635      6700
 2636              	.LASF78:
 2637 03e3 5F5F7364 		.ascii	"__sdidinit\000"
 2637      6964696E 
 2637      697400
 2638              	.LASF103:
 2639 03ee 5F67616D 		.ascii	"_gamma_signgam\000"
 2639      6D615F73 
 2639      69676E67 
 2639      616D00
 2640              	.LASF16:
 2641 03fd 77696E74 		.ascii	"wint_t\000"
 2641      5F7400
 2642              	.LASF133:
 2643 0404 4556454E 		.ascii	"EVENTS_ERRORECB\000"
 2643      54535F45 
 2643      52524F52 
 2643      45434200 
 2644              	.LASF83:
 2645 0414 5F667265 		.ascii	"_freelist\000"
 2645      656C6973 
 2645      7400
 2646              	.LASF131:
 2647 041e 52455345 		.ascii	"RESERVED0\000"
 2647      52564544 
 2647      3000
 2648              	.LASF134:
 2649 0428 52455345 		.ascii	"RESERVED1\000"
ARM GAS  /var/folders/nl/q97gxh4d5b321tqt4kfb6yzh0000gn/T//ccjiv1qf.s 			page 52


 2649      52564544 
 2649      3100
 2650              	.LASF137:
 2651 0432 52455345 		.ascii	"RESERVED2\000"
 2651      52564544 
 2651      3200
 2652              	.LASF13:
 2653 043c 5F4C4F43 		.ascii	"_LOCK_RECURSIVE_T\000"
 2653      4B5F5245 
 2653      43555253 
 2653      4956455F 
 2653      5400
 2654              	.LASF147:
 2655 044e 5F426F6F 		.ascii	"_Bool\000"
 2655      6C00
 2656              	.LASF125:
 2657 0454 696E7433 		.ascii	"int32_t\000"
 2657      325F7400 
 2658              	.LASF4:
 2659 045c 756E7369 		.ascii	"unsigned char\000"
 2659      676E6564 
 2659      20636861 
 2659      7200
 2660              	.LASF94:
 2661 046a 5F696F62 		.ascii	"_iobs\000"
 2661      7300
 2662              	.LASF117:
 2663 0470 5F685F65 		.ascii	"_h_errno\000"
 2663      72726E6F 
 2663      00
 2664              	.LASF23:
 2665 0479 5F666C6F 		.ascii	"_flock_t\000"
 2665      636B5F74 
 2665      00
 2666              	.LASF39:
 2667 0482 5F5F746D 		.ascii	"__tm_yday\000"
 2667      5F796461 
 2667      7900
 2668              	.LASF146:
 2669 048c 636F756E 		.ascii	"counter\000"
 2669      74657200 
 2670              	.LASF49:
 2671 0494 5F5F7362 		.ascii	"__sbuf\000"
 2671      756600
 2672              	.LASF68:
 2673 049b 5F666C61 		.ascii	"_flags2\000"
 2673      67733200 
 2674              	.LASF91:
 2675 04a3 5F5F4649 		.ascii	"__FILE\000"
 2675      4C4500
 2676              	.LASF22:
 2677 04aa 5F6D6273 		.ascii	"_mbstate_t\000"
 2677      74617465 
 2677      5F7400
 2678              	.LASF52:
 2679 04b5 5F5F7346 		.ascii	"__sFILE\000"
 2679      494C4500 
ARM GAS  /var/folders/nl/q97gxh4d5b321tqt4kfb6yzh0000gn/T//ccjiv1qf.s 			page 53


 2680              	.LASF67:
 2681 04bd 5F6D6273 		.ascii	"_mbstate\000"
 2681      74617465 
 2681      00
 2682              	.LASF130:
 2683 04c6 5441534B 		.ascii	"TASKS_STOPECB\000"
 2683      535F5354 
 2683      4F504543 
 2683      4200
 2684              	.LASF106:
 2685 04d4 5F6D626C 		.ascii	"_mblen_state\000"
 2685      656E5F73 
 2685      74617465 
 2685      00
 2686              	.LASF74:
 2687 04e1 5F696E63 		.ascii	"_inc\000"
 2687      00
 2688              	.LASF47:
 2689 04e6 5F696E64 		.ascii	"_ind\000"
 2689      00
 2690              	.LASF77:
 2691 04eb 5F6C6F63 		.ascii	"_locale\000"
 2691      616C6500 
 2692              	.LASF79:
 2693 04f3 5F5F636C 		.ascii	"__cleanup\000"
 2693      65616E75 
 2693      7000
 2694              	.LASF76:
 2695 04fd 5F756E73 		.ascii	"_unspecified_locale_info\000"
 2695      70656369 
 2695      66696564 
 2695      5F6C6F63 
 2695      616C655F 
 2696              	.LASF27:
 2697 0516 5F6D6178 		.ascii	"_maxwds\000"
 2697      77647300 
 2698              	.LASF69:
 2699 051e 5F726565 		.ascii	"_reent\000"
 2699      6E7400
 2700              	.LASF96:
 2701 0525 5F736565 		.ascii	"_seed\000"
 2701      6400
 2702              	.LASF20:
 2703 052b 5F5F636F 		.ascii	"__count\000"
 2703      756E7400 
 2704              	.LASF21:
 2705 0533 5F5F7661 		.ascii	"__value\000"
 2705      6C756500 
 2706              	.LASF59:
 2707 053b 5F736565 		.ascii	"_seek\000"
 2707      6B00
 2708              	.LASF38:
 2709 0541 5F5F746D 		.ascii	"__tm_wday\000"
 2709      5F776461 
 2709      7900
 2710              	.LASF15:
 2711 054b 5F66706F 		.ascii	"_fpos_t\000"
ARM GAS  /var/folders/nl/q97gxh4d5b321tqt4kfb6yzh0000gn/T//ccjiv1qf.s 			page 54


 2711      735F7400 
 2712              	.LASF2:
 2713 0553 6C6F6E67 		.ascii	"long double\000"
 2713      20646F75 
 2713      626C6500 
 2714              	.LASF24:
 2715 055f 63686172 		.ascii	"char\000"
 2715      00
 2716              	.LASF70:
 2717 0564 5F657272 		.ascii	"_errno\000"
 2717      6E6F00
 2718              	.LASF152:
 2719 056b 6E72665F 		.ascii	"nrf_ecb_set_key\000"
 2719      6563625F 
 2719      7365745F 
 2719      6B657900 
 2720              	.LASF63:
 2721 057b 5F626C6B 		.ascii	"_blksize\000"
 2721      73697A65 
 2721      00
 2722              	.LASF51:
 2723 0584 5F73697A 		.ascii	"_size\000"
 2723      6500
 2724              	.LASF0:
 2725 058a 756E7369 		.ascii	"unsigned int\000"
 2725      676E6564 
 2725      20696E74 
 2725      00
 2726              	.LASF8:
 2727 0597 5F5F696E 		.ascii	"__int32_t\000"
 2727      7433325F 
 2727      7400
 2728              	.LASF26:
 2729 05a1 5F6E6578 		.ascii	"_next\000"
 2729      7400
 2730              	.LASF100:
 2731 05a7 5F737472 		.ascii	"_strtok_last\000"
 2731      746F6B5F 
 2731      6C617374 
 2731      00
 2732              	.LASF44:
 2733 05b4 5F666E74 		.ascii	"_fntypes\000"
 2733      79706573 
 2733      00
 2734              	.LASF6:
 2735 05bd 73686F72 		.ascii	"short unsigned int\000"
 2735      7420756E 
 2735      7369676E 
 2735      65642069 
 2735      6E7400
 2736              	.LASF98:
 2737 05d0 5F616464 		.ascii	"_add\000"
 2737      00
 2738              	.LASF25:
 2739 05d5 5F5F554C 		.ascii	"__ULong\000"
 2739      6F6E6700 
 2740              	.LASF111:
ARM GAS  /var/folders/nl/q97gxh4d5b321tqt4kfb6yzh0000gn/T//ccjiv1qf.s 			page 55


 2741 05dd 5F676574 		.ascii	"_getdate_err\000"
 2741      64617465 
 2741      5F657272 
 2741      00
 2742              	.LASF122:
 2743 05ea 5F676C6F 		.ascii	"_global_impure_ptr\000"
 2743      62616C5F 
 2743      696D7075 
 2743      72655F70 
 2743      747200
 2744              	.LASF126:
 2745 05fd 75696E74 		.ascii	"uint32_t\000"
 2745      33325F74 
 2745      00
 2746              	.LASF99:
 2747 0606 5F756E75 		.ascii	"_unused_rand\000"
 2747      7365645F 
 2747      72616E64 
 2747      00
 2748              	.LASF29:
 2749 0613 5F776473 		.ascii	"_wds\000"
 2749      00
 2750              	.LASF92:
 2751 0618 5F676C75 		.ascii	"_glue\000"
 2751      6500
 2752              	.LASF124:
 2753 061e 75696E74 		.ascii	"uint8_t\000"
 2753      385F7400 
 2754              	.LASF109:
 2755 0626 5F6C3634 		.ascii	"_l64a_buf\000"
 2755      615F6275 
 2755      6600
 2756              	.LASF88:
 2757 0630 5F736967 		.ascii	"_sig_func\000"
 2757      5F66756E 
 2757      6300
 2758              	.LASF149:
 2759 063a 2E2E2F73 		.ascii	"../sdk/nRF5_SDK_12.2.0_f012efa/components/drivers_n"
 2759      646B2F6E 
 2759      5246355F 
 2759      53444B5F 
 2759      31322E32 
 2760 066d 72662F68 		.ascii	"rf/hal/nrf_ecb.c\000"
 2760      616C2F6E 
 2760      72665F65 
 2760      63622E63 
 2760      00
 2761              	.LASF62:
 2762 067e 5F6E6275 		.ascii	"_nbuf\000"
 2762      6600
 2763              	.LASF120:
 2764 0684 5F756E75 		.ascii	"_unused\000"
 2764      73656400 
 2765              	.LASF40:
 2766 068c 5F5F746D 		.ascii	"__tm_isdst\000"
 2766      5F697364 
 2766      737400
ARM GAS  /var/folders/nl/q97gxh4d5b321tqt4kfb6yzh0000gn/T//ccjiv1qf.s 			page 56


 2767              	.LASF102:
 2768 0697 5F6C6F63 		.ascii	"_localtime_buf\000"
 2768      616C7469 
 2768      6D655F62 
 2768      756600
 2769              	.LASF33:
 2770 06a6 5F5F746D 		.ascii	"__tm_min\000"
 2770      5F6D696E 
 2770      00
 2771              	.LASF105:
 2772 06af 5F723438 		.ascii	"_r48\000"
 2772      00
 2773              	.LASF107:
 2774 06b4 5F6D6274 		.ascii	"_mbtowc_state\000"
 2774      6F77635F 
 2774      73746174 
 2774      6500
 2775              	.LASF82:
 2776 06c2 5F703573 		.ascii	"_p5s\000"
 2776      00
 2777              	.LASF140:
 2778 06c7 6563625F 		.ascii	"ecb_data\000"
 2778      64617461 
 2778      00
 2779              	.LASF136:
 2780 06d0 494E5445 		.ascii	"INTENCLR\000"
 2780      4E434C52 
 2780      00
 2781              	.LASF35:
 2782 06d9 5F5F746D 		.ascii	"__tm_mday\000"
 2782      5F6D6461 
 2782      7900
 2783              	.LASF129:
 2784 06e3 5441534B 		.ascii	"TASKS_STARTECB\000"
 2784      535F5354 
 2784      41525445 
 2784      434200
 2785              	.LASF139:
 2786 06f2 4E52465F 		.ascii	"NRF_ECB_Type\000"
 2786      4543425F 
 2786      54797065 
 2786      00
 2787              		.ident	"GCC: (GNU Tools for ARM Embedded Processors) 6.2.1 20161205 (release) [ARM/embedded-6-bran
ARM GAS  /var/folders/nl/q97gxh4d5b321tqt4kfb6yzh0000gn/T//ccjiv1qf.s 			page 57


DEFINED SYMBOLS
                            *ABS*:0000000000000000 nrf_ecb.c
/var/folders/nl/q97gxh4d5b321tqt4kfb6yzh0000gn/T//ccjiv1qf.s:87     .text:0000000000000000 $t
/var/folders/nl/q97gxh4d5b321tqt4kfb6yzh0000gn/T//ccjiv1qf.s:94     .text:0000000000000000 nrf_ecb_init
/var/folders/nl/q97gxh4d5b321tqt4kfb6yzh0000gn/T//ccjiv1qf.s:123    .text:000000000000001c $d
/var/folders/nl/q97gxh4d5b321tqt4kfb6yzh0000gn/T//ccjiv1qf.s:128    .text:0000000000000024 $t
/var/folders/nl/q97gxh4d5b321tqt4kfb6yzh0000gn/T//ccjiv1qf.s:135    .text:0000000000000024 nrf_ecb_crypt
/var/folders/nl/q97gxh4d5b321tqt4kfb6yzh0000gn/T//ccjiv1qf.s:210    .text:000000000000007c $d
/var/folders/nl/q97gxh4d5b321tqt4kfb6yzh0000gn/T//ccjiv1qf.s:215    .text:0000000000000084 $t
/var/folders/nl/q97gxh4d5b321tqt4kfb6yzh0000gn/T//ccjiv1qf.s:222    .text:0000000000000084 nrf_ecb_set_key
/var/folders/nl/q97gxh4d5b321tqt4kfb6yzh0000gn/T//ccjiv1qf.s:245    .text:000000000000009c $d
/var/folders/nl/q97gxh4d5b321tqt4kfb6yzh0000gn/T//ccjiv1qf.s:250    .bss:0000000000000000 $d
/var/folders/nl/q97gxh4d5b321tqt4kfb6yzh0000gn/T//ccjiv1qf.s:254    .bss:0000000000000000 ecb_key
/var/folders/nl/q97gxh4d5b321tqt4kfb6yzh0000gn/T//ccjiv1qf.s:258    .bss:0000000000000004 ecb_data
/var/folders/nl/q97gxh4d5b321tqt4kfb6yzh0000gn/T//ccjiv1qf.s:262    .bss:0000000000000034 ecb_cleartext
/var/folders/nl/q97gxh4d5b321tqt4kfb6yzh0000gn/T//ccjiv1qf.s:266    .bss:0000000000000038 ecb_ciphertext
                     .debug_frame:0000000000000010 $d

NO UNDEFINED SYMBOLS
